
rv32uf-p-fmadd:     file format elf32-littleriscv


Disassembly of section .text.init:

40000000 <_start>:
40000000:	0500006f          	j	40000050 <reset_vector>

40000004 <trap_vector>:
40000004:	34202f73          	csrr	t5,mcause
40000008:	00800f93          	li	t6,8
4000000c:	03ff0863          	beq	t5,t6,4000003c <write_tohost>
40000010:	00900f93          	li	t6,9
40000014:	03ff0463          	beq	t5,t6,4000003c <write_tohost>
40000018:	00b00f93          	li	t6,11
4000001c:	03ff0063          	beq	t5,t6,4000003c <write_tohost>
40000020:	00000f13          	li	t5,0
40000024:	000f0463          	beqz	t5,4000002c <trap_vector+0x28>
40000028:	000f0067          	jr	t5
4000002c:	34202f73          	csrr	t5,mcause
40000030:	000f5463          	bgez	t5,40000038 <handle_exception>
40000034:	0040006f          	j	40000038 <handle_exception>

40000038 <handle_exception>:
40000038:	5391e193          	ori	gp,gp,1337

4000003c <write_tohost>:
4000003c:	00001f17          	auipc	t5,0x1
40000040:	fc3f2223          	sw	gp,-60(t5) # 40001000 <tohost>
40000044:	00001f17          	auipc	t5,0x1
40000048:	fc0f2023          	sw	zero,-64(t5) # 40001004 <tohost+0x4>
4000004c:	ff1ff06f          	j	4000003c <write_tohost>

40000050 <reset_vector>:
40000050:	00000093          	li	ra,0
40000054:	00000113          	li	sp,0
40000058:	00000193          	li	gp,0
4000005c:	00000213          	li	tp,0
40000060:	00000293          	li	t0,0
40000064:	00000313          	li	t1,0
40000068:	00000393          	li	t2,0
4000006c:	00000413          	li	s0,0
40000070:	00000493          	li	s1,0
40000074:	00000513          	li	a0,0
40000078:	00000593          	li	a1,0
4000007c:	00000613          	li	a2,0
40000080:	00000693          	li	a3,0
40000084:	00000713          	li	a4,0
40000088:	00000793          	li	a5,0
4000008c:	00000813          	li	a6,0
40000090:	00000893          	li	a7,0
40000094:	00000913          	li	s2,0
40000098:	00000993          	li	s3,0
4000009c:	00000a13          	li	s4,0
400000a0:	00000a93          	li	s5,0
400000a4:	00000b13          	li	s6,0
400000a8:	00000b93          	li	s7,0
400000ac:	00000c13          	li	s8,0
400000b0:	00000c93          	li	s9,0
400000b4:	00000d13          	li	s10,0
400000b8:	00000d93          	li	s11,0
400000bc:	00000e13          	li	t3,0
400000c0:	00000e93          	li	t4,0
400000c4:	00000f13          	li	t5,0
400000c8:	00000f93          	li	t6,0
400000cc:	f1402573          	csrr	a0,mhartid
400000d0:	00051063          	bnez	a0,400000d0 <reset_vector+0x80>
400000d4:	00000297          	auipc	t0,0x0
400000d8:	01028293          	addi	t0,t0,16 # 400000e4 <reset_vector+0x94>
400000dc:	30529073          	csrw	mtvec,t0
400000e0:	74445073          	csrwi	0x744,8
400000e4:	00000297          	auipc	t0,0x0
400000e8:	01028293          	addi	t0,t0,16 # 400000f4 <reset_vector+0xa4>
400000ec:	30529073          	csrw	mtvec,t0
400000f0:	18005073          	csrwi	satp,0
400000f4:	00000297          	auipc	t0,0x0
400000f8:	02028293          	addi	t0,t0,32 # 40000114 <reset_vector+0xc4>
400000fc:	30529073          	csrw	mtvec,t0
40000100:	800002b7          	lui	t0,0x80000
40000104:	fff28293          	addi	t0,t0,-1 # 7fffffff <_end+0x3fffdf3f>
40000108:	3b029073          	csrw	pmpaddr0,t0
4000010c:	01f00293          	li	t0,31
40000110:	3a029073          	csrw	pmpcfg0,t0
40000114:	30405073          	csrwi	mie,0
40000118:	00000297          	auipc	t0,0x0
4000011c:	01428293          	addi	t0,t0,20 # 4000012c <reset_vector+0xdc>
40000120:	30529073          	csrw	mtvec,t0
40000124:	30205073          	csrwi	medeleg,0
40000128:	30305073          	csrwi	mideleg,0
4000012c:	00000193          	li	gp,0
40000130:	00000297          	auipc	t0,0x0
40000134:	ed428293          	addi	t0,t0,-300 # 40000004 <trap_vector>
40000138:	30529073          	csrw	mtvec,t0
4000013c:	00100513          	li	a0,1
40000140:	01f51513          	slli	a0,a0,0x1f
40000144:	00054c63          	bltz	a0,4000015c <reset_vector+0x10c>
40000148:	0ff0000f          	fence
4000014c:	00100193          	li	gp,1
40000150:	05d00893          	li	a7,93
40000154:	00000513          	li	a0,0
40000158:	00000073          	ecall
4000015c:	00000293          	li	t0,0
40000160:	00028a63          	beqz	t0,40000174 <reset_vector+0x124>
40000164:	10529073          	csrw	stvec,t0
40000168:	0000b2b7          	lui	t0,0xb
4000016c:	10928293          	addi	t0,t0,265 # b109 <_start-0x3fff4ef7>
40000170:	30229073          	csrw	medeleg,t0
40000174:	30005073          	csrwi	mstatus,0
40000178:	00002537          	lui	a0,0x2
4000017c:	30052073          	csrs	mstatus,a0
40000180:	00305073          	csrwi	fcsr,0
40000184:	00000297          	auipc	t0,0x0
40000188:	01428293          	addi	t0,t0,20 # 40000198 <test_2>
4000018c:	34129073          	csrw	mepc,t0
40000190:	f1402573          	csrr	a0,mhartid
40000194:	30200073          	mret

40000198 <test_2>:
40000198:	00200193          	li	gp,2
4000019c:	00002517          	auipc	a0,0x2
400001a0:	e6450513          	addi	a0,a0,-412 # 40002000 <test_2_data>
400001a4:	00052507          	flw	fa0,0(a0)
400001a8:	00452587          	flw	fa1,4(a0)
400001ac:	00852607          	flw	fa2,8(a0)
400001b0:	00c52683          	lw	a3,12(a0)
400001b4:	60b576c3          	fmadd.s	fa3,fa0,fa1,fa2
400001b8:	e0068553          	fmv.x.w	a0,fa3
400001bc:	001015f3          	fsflags	a1,zero
400001c0:	00000613          	li	a2,0
400001c4:	24d51463          	bne	a0,a3,4000040c <fail>
400001c8:	24c59263          	bne	a1,a2,4000040c <fail>

400001cc <test_3>:
400001cc:	00300193          	li	gp,3
400001d0:	00002517          	auipc	a0,0x2
400001d4:	e4050513          	addi	a0,a0,-448 # 40002010 <test_3_data>
400001d8:	00052507          	flw	fa0,0(a0)
400001dc:	00452587          	flw	fa1,4(a0)
400001e0:	00852607          	flw	fa2,8(a0)
400001e4:	00c52683          	lw	a3,12(a0)
400001e8:	60b576c3          	fmadd.s	fa3,fa0,fa1,fa2
400001ec:	e0068553          	fmv.x.w	a0,fa3
400001f0:	001015f3          	fsflags	a1,zero
400001f4:	00100613          	li	a2,1
400001f8:	20d51a63          	bne	a0,a3,4000040c <fail>
400001fc:	20c59863          	bne	a1,a2,4000040c <fail>

40000200 <test_4>:
40000200:	00400193          	li	gp,4
40000204:	00002517          	auipc	a0,0x2
40000208:	e1c50513          	addi	a0,a0,-484 # 40002020 <test_4_data>
4000020c:	00052507          	flw	fa0,0(a0)
40000210:	00452587          	flw	fa1,4(a0)
40000214:	00852607          	flw	fa2,8(a0)
40000218:	00c52683          	lw	a3,12(a0)
4000021c:	60b576c3          	fmadd.s	fa3,fa0,fa1,fa2
40000220:	e0068553          	fmv.x.w	a0,fa3
40000224:	001015f3          	fsflags	a1,zero
40000228:	00000613          	li	a2,0
4000022c:	1ed51063          	bne	a0,a3,4000040c <fail>
40000230:	1cc59e63          	bne	a1,a2,4000040c <fail>

40000234 <test_5>:
40000234:	00500193          	li	gp,5
40000238:	00002517          	auipc	a0,0x2
4000023c:	df850513          	addi	a0,a0,-520 # 40002030 <test_5_data>
40000240:	00052507          	flw	fa0,0(a0)
40000244:	00452587          	flw	fa1,4(a0)
40000248:	00852607          	flw	fa2,8(a0)
4000024c:	00c52683          	lw	a3,12(a0)
40000250:	60b576cf          	fnmadd.s	fa3,fa0,fa1,fa2
40000254:	e0068553          	fmv.x.w	a0,fa3
40000258:	001015f3          	fsflags	a1,zero
4000025c:	00000613          	li	a2,0
40000260:	1ad51663          	bne	a0,a3,4000040c <fail>
40000264:	1ac59463          	bne	a1,a2,4000040c <fail>

40000268 <test_6>:
40000268:	00600193          	li	gp,6
4000026c:	00002517          	auipc	a0,0x2
40000270:	dd450513          	addi	a0,a0,-556 # 40002040 <test_6_data>
40000274:	00052507          	flw	fa0,0(a0)
40000278:	00452587          	flw	fa1,4(a0)
4000027c:	00852607          	flw	fa2,8(a0)
40000280:	00c52683          	lw	a3,12(a0)
40000284:	60b576cf          	fnmadd.s	fa3,fa0,fa1,fa2
40000288:	e0068553          	fmv.x.w	a0,fa3
4000028c:	001015f3          	fsflags	a1,zero
40000290:	00100613          	li	a2,1
40000294:	16d51c63          	bne	a0,a3,4000040c <fail>
40000298:	16c59a63          	bne	a1,a2,4000040c <fail>

4000029c <test_7>:
4000029c:	00700193          	li	gp,7
400002a0:	00002517          	auipc	a0,0x2
400002a4:	db050513          	addi	a0,a0,-592 # 40002050 <test_7_data>
400002a8:	00052507          	flw	fa0,0(a0)
400002ac:	00452587          	flw	fa1,4(a0)
400002b0:	00852607          	flw	fa2,8(a0)
400002b4:	00c52683          	lw	a3,12(a0)
400002b8:	60b576cf          	fnmadd.s	fa3,fa0,fa1,fa2
400002bc:	e0068553          	fmv.x.w	a0,fa3
400002c0:	001015f3          	fsflags	a1,zero
400002c4:	00000613          	li	a2,0
400002c8:	14d51263          	bne	a0,a3,4000040c <fail>
400002cc:	14c59063          	bne	a1,a2,4000040c <fail>

400002d0 <test_8>:
400002d0:	00800193          	li	gp,8
400002d4:	00002517          	auipc	a0,0x2
400002d8:	d8c50513          	addi	a0,a0,-628 # 40002060 <test_8_data>
400002dc:	00052507          	flw	fa0,0(a0)
400002e0:	00452587          	flw	fa1,4(a0)
400002e4:	00852607          	flw	fa2,8(a0)
400002e8:	00c52683          	lw	a3,12(a0)
400002ec:	60b576c7          	fmsub.s	fa3,fa0,fa1,fa2
400002f0:	e0068553          	fmv.x.w	a0,fa3
400002f4:	001015f3          	fsflags	a1,zero
400002f8:	00000613          	li	a2,0
400002fc:	10d51863          	bne	a0,a3,4000040c <fail>
40000300:	10c59663          	bne	a1,a2,4000040c <fail>

40000304 <test_9>:
40000304:	00900193          	li	gp,9
40000308:	00002517          	auipc	a0,0x2
4000030c:	d6850513          	addi	a0,a0,-664 # 40002070 <test_9_data>
40000310:	00052507          	flw	fa0,0(a0)
40000314:	00452587          	flw	fa1,4(a0)
40000318:	00852607          	flw	fa2,8(a0)
4000031c:	00c52683          	lw	a3,12(a0)
40000320:	60b576c7          	fmsub.s	fa3,fa0,fa1,fa2
40000324:	e0068553          	fmv.x.w	a0,fa3
40000328:	001015f3          	fsflags	a1,zero
4000032c:	00100613          	li	a2,1
40000330:	0cd51e63          	bne	a0,a3,4000040c <fail>
40000334:	0cc59c63          	bne	a1,a2,4000040c <fail>

40000338 <test_10>:
40000338:	00a00193          	li	gp,10
4000033c:	00002517          	auipc	a0,0x2
40000340:	d4450513          	addi	a0,a0,-700 # 40002080 <test_10_data>
40000344:	00052507          	flw	fa0,0(a0)
40000348:	00452587          	flw	fa1,4(a0)
4000034c:	00852607          	flw	fa2,8(a0)
40000350:	00c52683          	lw	a3,12(a0)
40000354:	60b576c7          	fmsub.s	fa3,fa0,fa1,fa2
40000358:	e0068553          	fmv.x.w	a0,fa3
4000035c:	001015f3          	fsflags	a1,zero
40000360:	00000613          	li	a2,0
40000364:	0ad51463          	bne	a0,a3,4000040c <fail>
40000368:	0ac59263          	bne	a1,a2,4000040c <fail>

4000036c <test_11>:
4000036c:	00b00193          	li	gp,11
40000370:	00002517          	auipc	a0,0x2
40000374:	d2050513          	addi	a0,a0,-736 # 40002090 <test_11_data>
40000378:	00052507          	flw	fa0,0(a0)
4000037c:	00452587          	flw	fa1,4(a0)
40000380:	00852607          	flw	fa2,8(a0)
40000384:	00c52683          	lw	a3,12(a0)
40000388:	60b576cb          	fnmsub.s	fa3,fa0,fa1,fa2
4000038c:	e0068553          	fmv.x.w	a0,fa3
40000390:	001015f3          	fsflags	a1,zero
40000394:	00000613          	li	a2,0
40000398:	06d51a63          	bne	a0,a3,4000040c <fail>
4000039c:	06c59863          	bne	a1,a2,4000040c <fail>

400003a0 <test_12>:
400003a0:	00c00193          	li	gp,12
400003a4:	00002517          	auipc	a0,0x2
400003a8:	cfc50513          	addi	a0,a0,-772 # 400020a0 <test_12_data>
400003ac:	00052507          	flw	fa0,0(a0)
400003b0:	00452587          	flw	fa1,4(a0)
400003b4:	00852607          	flw	fa2,8(a0)
400003b8:	00c52683          	lw	a3,12(a0)
400003bc:	60b576cb          	fnmsub.s	fa3,fa0,fa1,fa2
400003c0:	e0068553          	fmv.x.w	a0,fa3
400003c4:	001015f3          	fsflags	a1,zero
400003c8:	00100613          	li	a2,1
400003cc:	04d51063          	bne	a0,a3,4000040c <fail>
400003d0:	02c59e63          	bne	a1,a2,4000040c <fail>

400003d4 <test_13>:
400003d4:	00d00193          	li	gp,13
400003d8:	00002517          	auipc	a0,0x2
400003dc:	cd850513          	addi	a0,a0,-808 # 400020b0 <test_13_data>
400003e0:	00052507          	flw	fa0,0(a0)
400003e4:	00452587          	flw	fa1,4(a0)
400003e8:	00852607          	flw	fa2,8(a0)
400003ec:	00c52683          	lw	a3,12(a0)
400003f0:	60b576cb          	fnmsub.s	fa3,fa0,fa1,fa2
400003f4:	e0068553          	fmv.x.w	a0,fa3
400003f8:	001015f3          	fsflags	a1,zero
400003fc:	00000613          	li	a2,0
40000400:	00d51663          	bne	a0,a3,4000040c <fail>
40000404:	00c59463          	bne	a1,a2,4000040c <fail>
40000408:	02301063          	bne	zero,gp,40000428 <pass>

4000040c <fail>:
4000040c:	0ff0000f          	fence
40000410:	00018063          	beqz	gp,40000410 <fail+0x4>
40000414:	00119193          	slli	gp,gp,0x1
40000418:	0011e193          	ori	gp,gp,1
4000041c:	05d00893          	li	a7,93
40000420:	00018513          	mv	a0,gp
40000424:	00000073          	ecall

40000428 <pass>:
40000428:	0ff0000f          	fence
4000042c:	00100193          	li	gp,1
40000430:	05d00893          	li	a7,93
40000434:	00000513          	li	a0,0
40000438:	00000073          	ecall
4000043c:	c0001073          	unimp
40000440:	0000                	.insn	2, 0x
40000442:	0000                	.insn	2, 0x
40000444:	0000                	.insn	2, 0x
40000446:	0000                	.insn	2, 0x
40000448:	0000                	.insn	2, 0x
4000044a:	0000                	.insn	2, 0x
4000044c:	0000                	.insn	2, 0x
4000044e:	0000                	.insn	2, 0x
40000450:	0000                	.insn	2, 0x
40000452:	0000                	.insn	2, 0x
40000454:	0000                	.insn	2, 0x
40000456:	0000                	.insn	2, 0x
40000458:	0000                	.insn	2, 0x
4000045a:	0000                	.insn	2, 0x
4000045c:	0000                	.insn	2, 0x
4000045e:	0000                	.insn	2, 0x
40000460:	0000                	.insn	2, 0x
40000462:	0000                	.insn	2, 0x
40000464:	0000                	.insn	2, 0x
40000466:	0000                	.insn	2, 0x
40000468:	0000                	.insn	2, 0x
4000046a:	0000                	.insn	2, 0x
4000046c:	0000                	.insn	2, 0x
4000046e:	0000                	.insn	2, 0x
40000470:	0000                	.insn	2, 0x
40000472:	0000                	.insn	2, 0x
40000474:	0000                	.insn	2, 0x
40000476:	0000                	.insn	2, 0x
40000478:	0000                	.insn	2, 0x
4000047a:	0000                	.insn	2, 0x

Disassembly of section .data:

40002000 <test_2_data>:
40002000:	0000                	.insn	2, 0x
40002002:	3f80                	.insn	2, 0x3f80
40002004:	0000                	.insn	2, 0x
40002006:	4020                	.insn	2, 0x4020
40002008:	0000                	.insn	2, 0x
4000200a:	3f80                	.insn	2, 0x3f80
4000200c:	0000                	.insn	2, 0x
4000200e:	4060                	.insn	2, 0x4060

40002010 <test_3_data>:
40002010:	0000                	.insn	2, 0x
40002012:	bf80                	.insn	2, 0xbf80
40002014:	c49a6333          	.insn	4, 0xc49a6333
40002018:	cccd                	.insn	2, 0xcccd
4000201a:	3f8c                	.insn	2, 0x3f8c
4000201c:	8666                	.insn	2, 0x8666
4000201e:	449a                	.insn	2, 0x449a

40002020 <test_4_data>:
40002020:	0000                	.insn	2, 0x
40002022:	4000                	.insn	2, 0x4000
40002024:	0000                	.insn	2, 0x
40002026:	c0a0                	.insn	2, 0xc0a0
40002028:	0000                	.insn	2, 0x
4000202a:	c000                	.insn	2, 0xc000
4000202c:	0000                	.insn	2, 0x
4000202e:	c140                	.insn	2, 0xc140

40002030 <test_5_data>:
40002030:	0000                	.insn	2, 0x
40002032:	3f80                	.insn	2, 0x3f80
40002034:	0000                	.insn	2, 0x
40002036:	4020                	.insn	2, 0x4020
40002038:	0000                	.insn	2, 0x
4000203a:	3f80                	.insn	2, 0x3f80
4000203c:	0000                	.insn	2, 0x
4000203e:	c060                	.insn	2, 0xc060

40002040 <test_6_data>:
40002040:	0000                	.insn	2, 0x
40002042:	bf80                	.insn	2, 0xbf80
40002044:	c49a6333          	.insn	4, 0xc49a6333
40002048:	cccd                	.insn	2, 0xcccd
4000204a:	3f8c                	.insn	2, 0x3f8c
4000204c:	8666                	.insn	2, 0x8666
4000204e:	c49a                	.insn	2, 0xc49a

40002050 <test_7_data>:
40002050:	0000                	.insn	2, 0x
40002052:	4000                	.insn	2, 0x4000
40002054:	0000                	.insn	2, 0x
40002056:	c0a0                	.insn	2, 0xc0a0
40002058:	0000                	.insn	2, 0x
4000205a:	c000                	.insn	2, 0xc000
4000205c:	0000                	.insn	2, 0x
4000205e:	4140                	.insn	2, 0x4140

40002060 <test_8_data>:
40002060:	0000                	.insn	2, 0x
40002062:	3f80                	.insn	2, 0x3f80
40002064:	0000                	.insn	2, 0x
40002066:	4020                	.insn	2, 0x4020
40002068:	0000                	.insn	2, 0x
4000206a:	3f80                	.insn	2, 0x3f80
4000206c:	0000                	.insn	2, 0x
4000206e:	3fc0                	.insn	2, 0x3fc0

40002070 <test_9_data>:
40002070:	0000                	.insn	2, 0x
40002072:	bf80                	.insn	2, 0xbf80
40002074:	c49a6333          	.insn	4, 0xc49a6333
40002078:	cccd                	.insn	2, 0xcccd
4000207a:	3f8c                	.insn	2, 0x3f8c
4000207c:	4000                	.insn	2, 0x4000
4000207e:	449a                	.insn	2, 0x449a

40002080 <test_10_data>:
40002080:	0000                	.insn	2, 0x
40002082:	4000                	.insn	2, 0x4000
40002084:	0000                	.insn	2, 0x
40002086:	c0a0                	.insn	2, 0xc0a0
40002088:	0000                	.insn	2, 0x
4000208a:	c000                	.insn	2, 0xc000
4000208c:	0000                	.insn	2, 0x
4000208e:	c100                	.insn	2, 0xc100

40002090 <test_11_data>:
40002090:	0000                	.insn	2, 0x
40002092:	3f80                	.insn	2, 0x3f80
40002094:	0000                	.insn	2, 0x
40002096:	4020                	.insn	2, 0x4020
40002098:	0000                	.insn	2, 0x
4000209a:	3f80                	.insn	2, 0x3f80
4000209c:	0000                	.insn	2, 0x
4000209e:	bfc0                	.insn	2, 0xbfc0

400020a0 <test_12_data>:
400020a0:	0000                	.insn	2, 0x
400020a2:	bf80                	.insn	2, 0xbf80
400020a4:	c49a6333          	.insn	4, 0xc49a6333
400020a8:	cccd                	.insn	2, 0xcccd
400020aa:	3f8c                	.insn	2, 0x3f8c
400020ac:	4000                	.insn	2, 0x4000
400020ae:	c49a                	.insn	2, 0xc49a

400020b0 <test_13_data>:
400020b0:	0000                	.insn	2, 0x
400020b2:	4000                	.insn	2, 0x4000
400020b4:	0000                	.insn	2, 0x
400020b6:	c0a0                	.insn	2, 0xc0a0
400020b8:	0000                	.insn	2, 0x
400020ba:	c000                	.insn	2, 0xc000
400020bc:	0000                	.insn	2, 0x
400020be:	4100                	.insn	2, 0x4100
