
multicore_template.riscv:     file format elf32-littleriscv


Disassembly of section .text.init:

40000000 <_start>:
40000000:	00000093          	li	ra,0
40000004:	00000113          	li	sp,0
40000008:	00000193          	li	gp,0
4000000c:	00000213          	li	tp,0
40000010:	00000293          	li	t0,0
40000014:	00000313          	li	t1,0
40000018:	00000393          	li	t2,0
4000001c:	00000413          	li	s0,0
40000020:	00000493          	li	s1,0
40000024:	00000513          	li	a0,0
40000028:	00000593          	li	a1,0
4000002c:	00000613          	li	a2,0
40000030:	00000693          	li	a3,0
40000034:	00000713          	li	a4,0
40000038:	00000793          	li	a5,0
4000003c:	00000813          	li	a6,0
40000040:	00000893          	li	a7,0
40000044:	00000913          	li	s2,0
40000048:	00000993          	li	s3,0
4000004c:	00000a13          	li	s4,0
40000050:	00000a93          	li	s5,0
40000054:	00000b13          	li	s6,0
40000058:	00000b93          	li	s7,0
4000005c:	00000c13          	li	s8,0
40000060:	00000c93          	li	s9,0
40000064:	00000d13          	li	s10,0
40000068:	00000d93          	li	s11,0
4000006c:	00000e13          	li	t3,0
40000070:	00000e93          	li	t4,0
40000074:	00000f13          	li	t5,0
40000078:	00000f93          	li	t6,0
4000007c:	0001e2b7          	lui	t0,0x1e
40000080:	60028293          	addi	t0,t0,1536 # 1e600 <buflen.1+0x1e5c0>
40000084:	3002a073          	csrs	mstatus,t0
40000088:	00100293          	li	t0,1
4000008c:	01f29293          	slli	t0,t0,0x1f
40000090:	0002ca63          	bltz	t0,400000a4 <_start+0xa4>
40000094:	00100513          	li	a0,1
40000098:	00001297          	auipc	t0,0x1
4000009c:	f6a2a423          	sw	a0,-152(t0) # 40001000 <tohost>
400000a0:	ff5ff06f          	j	40000094 <_start+0x94>
400000a4:	00000297          	auipc	t0,0x0
400000a8:	03828293          	addi	t0,t0,56 # 400000dc <trap_entry>
400000ac:	30529073          	csrw	mtvec,t0
400000b0:	00004197          	auipc	gp,0x4
400000b4:	2d018193          	addi	gp,gp,720 # 40004380 <__global_pointer$>
400000b8:	87f18213          	addi	tp,gp,-1921 # 40003bff <_end+0x3f>
400000bc:	fc027213          	andi	tp,tp,-64
400000c0:	f1402573          	csrr	a0,mhartid
400000c4:	00150113          	addi	sp,a0,1
400000c8:	01111113          	slli	sp,sp,0x11
400000cc:	00410133          	add	sp,sp,tp
400000d0:	01151613          	slli	a2,a0,0x11
400000d4:	00c20233          	add	tp,tp,a2
400000d8:	11d0206f          	j	400029f4 <_init>

400000dc <trap_entry>:
400000dc:	ef010113          	addi	sp,sp,-272
400000e0:	00112223          	sw	ra,4(sp)
400000e4:	00212423          	sw	sp,8(sp)
400000e8:	00312623          	sw	gp,12(sp)
400000ec:	00412823          	sw	tp,16(sp)
400000f0:	00512a23          	sw	t0,20(sp)
400000f4:	00612c23          	sw	t1,24(sp)
400000f8:	00712e23          	sw	t2,28(sp)
400000fc:	02812023          	sw	s0,32(sp)
40000100:	02912223          	sw	s1,36(sp)
40000104:	02a12423          	sw	a0,40(sp)
40000108:	02b12623          	sw	a1,44(sp)
4000010c:	02c12823          	sw	a2,48(sp)
40000110:	02d12a23          	sw	a3,52(sp)
40000114:	02e12c23          	sw	a4,56(sp)
40000118:	02f12e23          	sw	a5,60(sp)
4000011c:	05012023          	sw	a6,64(sp)
40000120:	05112223          	sw	a7,68(sp)
40000124:	05212423          	sw	s2,72(sp)
40000128:	05312623          	sw	s3,76(sp)
4000012c:	05412823          	sw	s4,80(sp)
40000130:	05512a23          	sw	s5,84(sp)
40000134:	05612c23          	sw	s6,88(sp)
40000138:	05712e23          	sw	s7,92(sp)
4000013c:	07812023          	sw	s8,96(sp)
40000140:	07912223          	sw	s9,100(sp)
40000144:	07a12423          	sw	s10,104(sp)
40000148:	07b12623          	sw	s11,108(sp)
4000014c:	07c12823          	sw	t3,112(sp)
40000150:	07d12a23          	sw	t4,116(sp)
40000154:	07e12c23          	sw	t5,120(sp)
40000158:	07f12e23          	sw	t6,124(sp)
4000015c:	34202573          	csrr	a0,mcause
40000160:	341025f3          	csrr	a1,mepc
40000164:	00010613          	mv	a2,sp
40000168:	518020ef          	jal	40002680 <handle_trap>
4000016c:	34151073          	csrw	mepc,a0
40000170:	000022b7          	lui	t0,0x2
40000174:	80028293          	addi	t0,t0,-2048 # 1800 <buflen.1+0x17c0>
40000178:	3002a073          	csrs	mstatus,t0
4000017c:	00412083          	lw	ra,4(sp)
40000180:	00812103          	lw	sp,8(sp)
40000184:	00c12183          	lw	gp,12(sp)
40000188:	01012203          	lw	tp,16(sp)
4000018c:	01412283          	lw	t0,20(sp)
40000190:	01812303          	lw	t1,24(sp)
40000194:	01c12383          	lw	t2,28(sp)
40000198:	02012403          	lw	s0,32(sp)
4000019c:	02412483          	lw	s1,36(sp)
400001a0:	02812503          	lw	a0,40(sp)
400001a4:	02c12583          	lw	a1,44(sp)
400001a8:	03012603          	lw	a2,48(sp)
400001ac:	03412683          	lw	a3,52(sp)
400001b0:	03812703          	lw	a4,56(sp)
400001b4:	03c12783          	lw	a5,60(sp)
400001b8:	04012803          	lw	a6,64(sp)
400001bc:	04412883          	lw	a7,68(sp)
400001c0:	04812903          	lw	s2,72(sp)
400001c4:	04c12983          	lw	s3,76(sp)
400001c8:	05012a03          	lw	s4,80(sp)
400001cc:	05412a83          	lw	s5,84(sp)
400001d0:	05812b03          	lw	s6,88(sp)
400001d4:	05c12b83          	lw	s7,92(sp)
400001d8:	06012c03          	lw	s8,96(sp)
400001dc:	06412c83          	lw	s9,100(sp)
400001e0:	06812d03          	lw	s10,104(sp)
400001e4:	06c12d83          	lw	s11,108(sp)
400001e8:	07012e03          	lw	t3,112(sp)
400001ec:	07412e83          	lw	t4,116(sp)
400001f0:	07812f03          	lw	t5,120(sp)
400001f4:	07c12f83          	lw	t6,124(sp)
400001f8:	11010113          	addi	sp,sp,272
400001fc:	30200073          	mret

Disassembly of section .text:

40002000 <thread_entry>:
40002000:	00050863          	beqz	a0,40002010 <thread_entry+0x10>
40002004:	00100793          	li	a5,1
40002008:	00f50663          	beq	a0,a5,40002014 <thread_entry+0x14>
4000200c:	00008067          	ret
40002010:	0000006f          	j	40002010 <thread_entry+0x10>
40002014:	0000006f          	j	40002014 <thread_entry+0x14>

40002018 <vprintfmt>:
40002018:	eb010113          	addi	sp,sp,-336
4000201c:	14812423          	sw	s0,328(sp)
40002020:	15212023          	sw	s2,320(sp)
40002024:	13312e23          	sw	s3,316(sp)
40002028:	13512a23          	sw	s5,308(sp)
4000202c:	14112623          	sw	ra,332(sp)
40002030:	14912223          	sw	s1,324(sp)
40002034:	13412c23          	sw	s4,312(sp)
40002038:	13712623          	sw	s7,300(sp)
4000203c:	13812423          	sw	s8,296(sp)
40002040:	13a12023          	sw	s10,288(sp)
40002044:	11b12e23          	sw	s11,284(sp)
40002048:	00050993          	mv	s3,a0
4000204c:	00058913          	mv	s2,a1
40002050:	00060413          	mv	s0,a2
40002054:	00d12623          	sw	a3,12(sp)
40002058:	02500a93          	li	s5,37
4000205c:	0140006f          	j	40002070 <vprintfmt+0x58>
40002060:	06050463          	beqz	a0,400020c8 <vprintfmt+0xb0>
40002064:	00090593          	mv	a1,s2
40002068:	00140413          	addi	s0,s0,1
4000206c:	000980e7          	jalr	s3
40002070:	00044503          	lbu	a0,0(s0)
40002074:	ff5516e3          	bne	a0,s5,40002060 <vprintfmt+0x48>
40002078:	00144683          	lbu	a3,1(s0)
4000207c:	00140a13          	addi	s4,s0,1
40002080:	02000793          	li	a5,32
40002084:	000a0713          	mv	a4,s4
40002088:	00f12423          	sw	a5,8(sp)
4000208c:	fff00493          	li	s1,-1
40002090:	fff00c13          	li	s8,-1
40002094:	00000593          	li	a1,0
40002098:	fdd68793          	addi	a5,a3,-35
4000209c:	0ff7f793          	zext.b	a5,a5
400020a0:	05500613          	li	a2,85
400020a4:	00170413          	addi	s0,a4,1
400020a8:	06f66a63          	bltu	a2,a5,4000211c <vprintfmt+0x104>
400020ac:	00002617          	auipc	a2,0x2
400020b0:	82c60613          	addi	a2,a2,-2004 # 400038d8 <main+0x68>
400020b4:	00279793          	slli	a5,a5,0x2
400020b8:	00c787b3          	add	a5,a5,a2
400020bc:	0007a783          	lw	a5,0(a5)
400020c0:	00c787b3          	add	a5,a5,a2
400020c4:	00078067          	jr	a5
400020c8:	14c12083          	lw	ra,332(sp)
400020cc:	14812403          	lw	s0,328(sp)
400020d0:	14412483          	lw	s1,324(sp)
400020d4:	14012903          	lw	s2,320(sp)
400020d8:	13c12983          	lw	s3,316(sp)
400020dc:	13812a03          	lw	s4,312(sp)
400020e0:	13412a83          	lw	s5,308(sp)
400020e4:	12c12b83          	lw	s7,300(sp)
400020e8:	12812c03          	lw	s8,296(sp)
400020ec:	12012d03          	lw	s10,288(sp)
400020f0:	11c12d83          	lw	s11,284(sp)
400020f4:	15010113          	addi	sp,sp,336
400020f8:	00008067          	ret
400020fc:	00d12423          	sw	a3,8(sp)
40002100:	00174683          	lbu	a3,1(a4)
40002104:	05500613          	li	a2,85
40002108:	00040713          	mv	a4,s0
4000210c:	fdd68793          	addi	a5,a3,-35
40002110:	0ff7f793          	zext.b	a5,a5
40002114:	00170413          	addi	s0,a4,1
40002118:	f8f67ae3          	bgeu	a2,a5,400020ac <vprintfmt+0x94>
4000211c:	00090593          	mv	a1,s2
40002120:	02500513          	li	a0,37
40002124:	000980e7          	jalr	s3
40002128:	000a0413          	mv	s0,s4
4000212c:	f45ff06f          	j	40002070 <vprintfmt+0x58>
40002130:	00174603          	lbu	a2,1(a4)
40002134:	00900793          	li	a5,9
40002138:	fd068493          	addi	s1,a3,-48
4000213c:	fd060713          	addi	a4,a2,-48
40002140:	00060693          	mv	a3,a2
40002144:	3ce7e263          	bltu	a5,a4,40002508 <vprintfmt+0x4f0>
40002148:	00040713          	mv	a4,s0
4000214c:	00900513          	li	a0,9
40002150:	00249793          	slli	a5,s1,0x2
40002154:	009787b3          	add	a5,a5,s1
40002158:	00170713          	addi	a4,a4,1
4000215c:	00179793          	slli	a5,a5,0x1
40002160:	00c787b3          	add	a5,a5,a2
40002164:	00074603          	lbu	a2,0(a4)
40002168:	fd078493          	addi	s1,a5,-48
4000216c:	fd060793          	addi	a5,a2,-48
40002170:	00060693          	mv	a3,a2
40002174:	fcf57ee3          	bgeu	a0,a5,40002150 <vprintfmt+0x138>
40002178:	f20c50e3          	bgez	s8,40002098 <vprintfmt+0x80>
4000217c:	00048c13          	mv	s8,s1
40002180:	fff00493          	li	s1,-1
40002184:	f15ff06f          	j	40002098 <vprintfmt+0x80>
40002188:	00174683          	lbu	a3,1(a4)
4000218c:	00040713          	mv	a4,s0
40002190:	f09ff06f          	j	40002098 <vprintfmt+0x80>
40002194:	00090593          	mv	a1,s2
40002198:	02500513          	li	a0,37
4000219c:	000980e7          	jalr	s3
400021a0:	ed1ff06f          	j	40002070 <vprintfmt+0x58>
400021a4:	00c12783          	lw	a5,12(sp)
400021a8:	00174683          	lbu	a3,1(a4)
400021ac:	00040713          	mv	a4,s0
400021b0:	0007a483          	lw	s1,0(a5)
400021b4:	00478793          	addi	a5,a5,4
400021b8:	00f12623          	sw	a5,12(sp)
400021bc:	fbdff06f          	j	40002178 <vprintfmt+0x160>
400021c0:	00090593          	mv	a1,s2
400021c4:	03000513          	li	a0,48
400021c8:	13612823          	sw	s6,304(sp)
400021cc:	000980e7          	jalr	s3
400021d0:	00090593          	mv	a1,s2
400021d4:	07800513          	li	a0,120
400021d8:	000980e7          	jalr	s3
400021dc:	00c12783          	lw	a5,12(sp)
400021e0:	01000b93          	li	s7,16
400021e4:	00000d93          	li	s11,0
400021e8:	00478713          	addi	a4,a5,4
400021ec:	00c12783          	lw	a5,12(sp)
400021f0:	00000d13          	li	s10,0
400021f4:	0007a483          	lw	s1,0(a5)
400021f8:	00e12623          	sw	a4,12(sp)
400021fc:	000b8613          	mv	a2,s7
40002200:	00000693          	li	a3,0
40002204:	00048513          	mv	a0,s1
40002208:	000d0593          	mv	a1,s10
4000220c:	280010ef          	jal	4000348c <__umoddi3>
40002210:	00a12823          	sw	a0,16(sp)
40002214:	29ad8263          	beq	s11,s10,40002498 <vprintfmt+0x480>
40002218:	13912223          	sw	s9,292(sp)
4000221c:	00100b13          	li	s6,1
40002220:	01410c93          	addi	s9,sp,20
40002224:	000b8613          	mv	a2,s7
40002228:	00000693          	li	a3,0
4000222c:	00048513          	mv	a0,s1
40002230:	000d0593          	mv	a1,s10
40002234:	629000ef          	jal	4000305c <__udivdi3>
40002238:	000b8613          	mv	a2,s7
4000223c:	00000693          	li	a3,0
40002240:	00050493          	mv	s1,a0
40002244:	00058d13          	mv	s10,a1
40002248:	244010ef          	jal	4000348c <__umoddi3>
4000224c:	00aca023          	sw	a0,0(s9)
40002250:	000b0a13          	mv	s4,s6
40002254:	004c8c93          	addi	s9,s9,4
40002258:	001b0b13          	addi	s6,s6,1
4000225c:	fdad94e3          	bne	s11,s10,40002224 <vprintfmt+0x20c>
40002260:	fd74f2e3          	bgeu	s1,s7,40002224 <vprintfmt+0x20c>
40002264:	12412c83          	lw	s9,292(sp)
40002268:	fffc0b93          	addi	s7,s8,-1
4000226c:	fffb0493          	addi	s1,s6,-1
40002270:	018b5c63          	bge	s6,s8,40002288 <vprintfmt+0x270>
40002274:	00812503          	lw	a0,8(sp)
40002278:	00090593          	mv	a1,s2
4000227c:	fffb8b93          	addi	s7,s7,-1
40002280:	000980e7          	jalr	s3
40002284:	fe9b98e3          	bne	s7,s1,40002274 <vprintfmt+0x25c>
40002288:	01010493          	addi	s1,sp,16
4000228c:	002a1a13          	slli	s4,s4,0x2
40002290:	01448a33          	add	s4,s1,s4
40002294:	00900b13          	li	s6,9
40002298:	0080006f          	j	400022a0 <vprintfmt+0x288>
4000229c:	00078a13          	mv	s4,a5
400022a0:	000a2783          	lw	a5,0(s4)
400022a4:	03000513          	li	a0,48
400022a8:	00fb7463          	bgeu	s6,a5,400022b0 <vprintfmt+0x298>
400022ac:	05700513          	li	a0,87
400022b0:	00a78533          	add	a0,a5,a0
400022b4:	00090593          	mv	a1,s2
400022b8:	000980e7          	jalr	s3
400022bc:	ffca0793          	addi	a5,s4,-4
400022c0:	fd449ee3          	bne	s1,s4,4000229c <vprintfmt+0x284>
400022c4:	13012b03          	lw	s6,304(sp)
400022c8:	da9ff06f          	j	40002070 <vprintfmt+0x58>
400022cc:	13612823          	sw	s6,304(sp)
400022d0:	00100793          	li	a5,1
400022d4:	1cb7ca63          	blt	a5,a1,400024a8 <vprintfmt+0x490>
400022d8:	00c12783          	lw	a5,12(sp)
400022dc:	0007a483          	lw	s1,0(a5)
400022e0:	00478793          	addi	a5,a5,4
400022e4:	00f12623          	sw	a5,12(sp)
400022e8:	41f4dd13          	srai	s10,s1,0x1f
400022ec:	020d5063          	bgez	s10,4000230c <vprintfmt+0x2f4>
400022f0:	00090593          	mv	a1,s2
400022f4:	02d00513          	li	a0,45
400022f8:	000980e7          	jalr	s3
400022fc:	00903733          	snez	a4,s1
40002300:	41a007b3          	neg	a5,s10
40002304:	409004b3          	neg	s1,s1
40002308:	40e78d33          	sub	s10,a5,a4
4000230c:	00a00b93          	li	s7,10
40002310:	00000d93          	li	s11,0
40002314:	ee9ff06f          	j	400021fc <vprintfmt+0x1e4>
40002318:	00174683          	lbu	a3,1(a4)
4000231c:	00158593          	addi	a1,a1,1
40002320:	00040713          	mv	a4,s0
40002324:	d75ff06f          	j	40002098 <vprintfmt+0x80>
40002328:	13612823          	sw	s6,304(sp)
4000232c:	01000b93          	li	s7,16
40002330:	00000d93          	li	s11,0
40002334:	00100793          	li	a5,1
40002338:	12b7cc63          	blt	a5,a1,40002470 <vprintfmt+0x458>
4000233c:	00c12783          	lw	a5,12(sp)
40002340:	00478713          	addi	a4,a5,4
40002344:	ea9ff06f          	j	400021ec <vprintfmt+0x1d4>
40002348:	00c12783          	lw	a5,12(sp)
4000234c:	13912223          	sw	s9,292(sp)
40002350:	0007aa03          	lw	s4,0(a5)
40002354:	00478c93          	addi	s9,a5,4
40002358:	060a0863          	beqz	s4,400023c8 <vprintfmt+0x3b0>
4000235c:	0d805463          	blez	s8,40002424 <vprintfmt+0x40c>
40002360:	00812703          	lw	a4,8(sp)
40002364:	02d00793          	li	a5,45
40002368:	06f71e63          	bne	a4,a5,400023e4 <vprintfmt+0x3cc>
4000236c:	000a4503          	lbu	a0,0(s4)
40002370:	02050c63          	beqz	a0,400023a8 <vprintfmt+0x390>
40002374:	13612823          	sw	s6,304(sp)
40002378:	fff00b13          	li	s6,-1
4000237c:	0004c663          	bltz	s1,40002388 <vprintfmt+0x370>
40002380:	fff48493          	addi	s1,s1,-1
40002384:	01648e63          	beq	s1,s6,400023a0 <vprintfmt+0x388>
40002388:	00090593          	mv	a1,s2
4000238c:	000980e7          	jalr	s3
40002390:	001a4503          	lbu	a0,1(s4)
40002394:	fffc0c13          	addi	s8,s8,-1
40002398:	001a0a13          	addi	s4,s4,1
4000239c:	fe0510e3          	bnez	a0,4000237c <vprintfmt+0x364>
400023a0:	13012b03          	lw	s6,304(sp)
400023a4:	01805c63          	blez	s8,400023bc <vprintfmt+0x3a4>
400023a8:	00090593          	mv	a1,s2
400023ac:	02000513          	li	a0,32
400023b0:	fffc0c13          	addi	s8,s8,-1
400023b4:	000980e7          	jalr	s3
400023b8:	fe0c18e3          	bnez	s8,400023a8 <vprintfmt+0x390>
400023bc:	01912623          	sw	s9,12(sp)
400023c0:	12412c83          	lw	s9,292(sp)
400023c4:	cadff06f          	j	40002070 <vprintfmt+0x58>
400023c8:	13805463          	blez	s8,400024f0 <vprintfmt+0x4d8>
400023cc:	00812703          	lw	a4,8(sp)
400023d0:	02d00793          	li	a5,45
400023d4:	00001a17          	auipc	s4,0x1
400023d8:	4c0a0a13          	addi	s4,s4,1216 # 40003894 <main+0x24>
400023dc:	02800513          	li	a0,40
400023e0:	f8f70ae3          	beq	a4,a5,40002374 <vprintfmt+0x35c>
400023e4:	000a0793          	mv	a5,s4
400023e8:	009a06b3          	add	a3,s4,s1
400023ec:	00049863          	bnez	s1,400023fc <vprintfmt+0x3e4>
400023f0:	0200006f          	j	40002410 <vprintfmt+0x3f8>
400023f4:	00178793          	addi	a5,a5,1
400023f8:	00d78663          	beq	a5,a3,40002404 <vprintfmt+0x3ec>
400023fc:	0007c703          	lbu	a4,0(a5)
40002400:	fe071ae3          	bnez	a4,400023f4 <vprintfmt+0x3dc>
40002404:	414787b3          	sub	a5,a5,s4
40002408:	40fc0c33          	sub	s8,s8,a5
4000240c:	01805c63          	blez	s8,40002424 <vprintfmt+0x40c>
40002410:	00812503          	lw	a0,8(sp)
40002414:	00090593          	mv	a1,s2
40002418:	fffc0c13          	addi	s8,s8,-1
4000241c:	000980e7          	jalr	s3
40002420:	fe0c18e3          	bnez	s8,40002410 <vprintfmt+0x3f8>
40002424:	000a4503          	lbu	a0,0(s4)
40002428:	f8050ae3          	beqz	a0,400023bc <vprintfmt+0x3a4>
4000242c:	13612823          	sw	s6,304(sp)
40002430:	f49ff06f          	j	40002378 <vprintfmt+0x360>
40002434:	fffc4793          	not	a5,s8
40002438:	41f7d793          	srai	a5,a5,0x1f
4000243c:	00174683          	lbu	a3,1(a4)
40002440:	00fc7c33          	and	s8,s8,a5
40002444:	00040713          	mv	a4,s0
40002448:	c51ff06f          	j	40002098 <vprintfmt+0x80>
4000244c:	00c12783          	lw	a5,12(sp)
40002450:	13912223          	sw	s9,292(sp)
40002454:	00090593          	mv	a1,s2
40002458:	0007a503          	lw	a0,0(a5)
4000245c:	00478c93          	addi	s9,a5,4
40002460:	000980e7          	jalr	s3
40002464:	01912623          	sw	s9,12(sp)
40002468:	12412c83          	lw	s9,292(sp)
4000246c:	c05ff06f          	j	40002070 <vprintfmt+0x58>
40002470:	00c12783          	lw	a5,12(sp)
40002474:	13912223          	sw	s9,292(sp)
40002478:	00778c93          	addi	s9,a5,7
4000247c:	ff8cfc93          	andi	s9,s9,-8
40002480:	008c8793          	addi	a5,s9,8
40002484:	000ca483          	lw	s1,0(s9)
40002488:	004cad03          	lw	s10,4(s9)
4000248c:	00f12623          	sw	a5,12(sp)
40002490:	12412c83          	lw	s9,292(sp)
40002494:	d69ff06f          	j	400021fc <vprintfmt+0x1e4>
40002498:	d974f0e3          	bgeu	s1,s7,40002218 <vprintfmt+0x200>
4000249c:	00000a13          	li	s4,0
400024a0:	00100b13          	li	s6,1
400024a4:	dc5ff06f          	j	40002268 <vprintfmt+0x250>
400024a8:	00c12783          	lw	a5,12(sp)
400024ac:	13912223          	sw	s9,292(sp)
400024b0:	00778c93          	addi	s9,a5,7
400024b4:	ff8cfc93          	andi	s9,s9,-8
400024b8:	008c8793          	addi	a5,s9,8
400024bc:	000ca483          	lw	s1,0(s9)
400024c0:	004cad03          	lw	s10,4(s9)
400024c4:	00f12623          	sw	a5,12(sp)
400024c8:	12412c83          	lw	s9,292(sp)
400024cc:	e21ff06f          	j	400022ec <vprintfmt+0x2d4>
400024d0:	13612823          	sw	s6,304(sp)
400024d4:	00a00b93          	li	s7,10
400024d8:	00000d93          	li	s11,0
400024dc:	e59ff06f          	j	40002334 <vprintfmt+0x31c>
400024e0:	13612823          	sw	s6,304(sp)
400024e4:	00800b93          	li	s7,8
400024e8:	00000d93          	li	s11,0
400024ec:	e49ff06f          	j	40002334 <vprintfmt+0x31c>
400024f0:	13612823          	sw	s6,304(sp)
400024f4:	00001a17          	auipc	s4,0x1
400024f8:	3a0a0a13          	addi	s4,s4,928 # 40003894 <main+0x24>
400024fc:	02800513          	li	a0,40
40002500:	fff00b13          	li	s6,-1
40002504:	e79ff06f          	j	4000237c <vprintfmt+0x364>
40002508:	00040713          	mv	a4,s0
4000250c:	c6dff06f          	j	40002178 <vprintfmt+0x160>

40002510 <sprintf_putch.0>:
40002510:	0005a783          	lw	a5,0(a1)
40002514:	00a78023          	sb	a0,0(a5)
40002518:	0005a783          	lw	a5,0(a1)
4000251c:	00178793          	addi	a5,a5,1
40002520:	00f5a023          	sw	a5,0(a1)
40002524:	00008067          	ret

40002528 <putchar>:
40002528:	04022803          	lw	a6,64(tp) # 40 <buflen.1>
4000252c:	00020793          	mv	a5,tp
40002530:	010787b3          	add	a5,a5,a6
40002534:	f8010113          	addi	sp,sp,-128
40002538:	00180713          	addi	a4,a6,1
4000253c:	04e22023          	sw	a4,64(tp) # 40 <buflen.1>
40002540:	00a78023          	sb	a0,0(a5)
40002544:	03f10693          	addi	a3,sp,63
40002548:	00a00793          	li	a5,10
4000254c:	fc06f693          	andi	a3,a3,-64
40002550:	00f50c63          	beq	a0,a5,40002568 <putchar+0x40>
40002554:	04000793          	li	a5,64
40002558:	00f70863          	beq	a4,a5,40002568 <putchar+0x40>
4000255c:	00000513          	li	a0,0
40002560:	08010113          	addi	sp,sp,128
40002564:	00008067          	ret
40002568:	04000813          	li	a6,64
4000256c:	0106a023          	sw	a6,0(a3)
40002570:	00000893          	li	a7,0
40002574:	0116a223          	sw	a7,4(a3)
40002578:	00100e13          	li	t3,1
4000257c:	01c6a423          	sw	t3,8(a3)
40002580:	00000e93          	li	t4,0
40002584:	01d6a623          	sw	t4,12(a3)
40002588:	00020313          	mv	t1,tp
4000258c:	0066a823          	sw	t1,16(a3)
40002590:	00000393          	li	t2,0
40002594:	0076aa23          	sw	t2,20(a3)
40002598:	00e6ac23          	sw	a4,24(a3)
4000259c:	41f75893          	srai	a7,a4,0x1f
400025a0:	0116ae23          	sw	a7,28(a3)
400025a4:	0ff0000f          	fence
400025a8:	fffff617          	auipc	a2,0xfffff
400025ac:	a5860613          	addi	a2,a2,-1448 # 40001000 <tohost>
400025b0:	00d62023          	sw	a3,0(a2)
400025b4:	00000793          	li	a5,0
400025b8:	00f62223          	sw	a5,4(a2)
400025bc:	fffff617          	auipc	a2,0xfffff
400025c0:	a8460613          	addi	a2,a2,-1404 # 40001040 <fromhost>
400025c4:	00062703          	lw	a4,0(a2)
400025c8:	00462783          	lw	a5,4(a2)
400025cc:	00f76733          	or	a4,a4,a5
400025d0:	fe070ae3          	beqz	a4,400025c4 <putchar+0x9c>
400025d4:	00000793          	li	a5,0
400025d8:	00f62023          	sw	a5,0(a2)
400025dc:	00000813          	li	a6,0
400025e0:	01062223          	sw	a6,4(a2)
400025e4:	0ff0000f          	fence
400025e8:	04022023          	sw	zero,64(tp) # 40 <buflen.1>
400025ec:	0006a703          	lw	a4,0(a3)
400025f0:	00000513          	li	a0,0
400025f4:	0046a783          	lw	a5,4(a3)
400025f8:	08010113          	addi	sp,sp,128
400025fc:	00008067          	ret

40002600 <setStats>:
40002600:	b0002773          	csrr	a4,mcycle
40002604:	00001797          	auipc	a5,0x1
40002608:	58478793          	addi	a5,a5,1412 # 40003b88 <counters>
4000260c:	00050a63          	beqz	a0,40002620 <setStats+0x20>
40002610:	00e7a023          	sw	a4,0(a5)
40002614:	b0202773          	csrr	a4,minstret
40002618:	00e7a223          	sw	a4,4(a5)
4000261c:	00008067          	ret
40002620:	0007a603          	lw	a2,0(a5)
40002624:	00001697          	auipc	a3,0x1
40002628:	55c68693          	addi	a3,a3,1372 # 40003b80 <counter_names>
4000262c:	40c70733          	sub	a4,a4,a2
40002630:	00001617          	auipc	a2,0x1
40002634:	27060613          	addi	a2,a2,624 # 400038a0 <main+0x30>
40002638:	00c6a023          	sw	a2,0(a3)
4000263c:	00e7a023          	sw	a4,0(a5)
40002640:	b0202773          	csrr	a4,minstret
40002644:	0047a603          	lw	a2,4(a5)
40002648:	00001597          	auipc	a1,0x1
4000264c:	26058593          	addi	a1,a1,608 # 400038a8 <main+0x38>
40002650:	00b6a223          	sw	a1,4(a3)
40002654:	40c70733          	sub	a4,a4,a2
40002658:	00e7a223          	sw	a4,4(a5)
4000265c:	00008067          	ret

40002660 <tohost_exit>:
40002660:	00151693          	slli	a3,a0,0x1
40002664:	0016e713          	ori	a4,a3,1
40002668:	fffff697          	auipc	a3,0xfffff
4000266c:	99868693          	addi	a3,a3,-1640 # 40001000 <tohost>
40002670:	00000793          	li	a5,0
40002674:	00e6a023          	sw	a4,0(a3)
40002678:	00f6a223          	sw	a5,4(a3)
4000267c:	0000006f          	j	4000267c <tohost_exit+0x1c>

40002680 <handle_trap>:
40002680:	00001637          	lui	a2,0x1
40002684:	fffff797          	auipc	a5,0xfffff
40002688:	97c78793          	addi	a5,a5,-1668 # 40001000 <tohost>
4000268c:	a7360613          	addi	a2,a2,-1421 # a73 <buflen.1+0xa33>
40002690:	00000693          	li	a3,0
40002694:	00c7a023          	sw	a2,0(a5)
40002698:	00d7a223          	sw	a3,4(a5)
4000269c:	0000006f          	j	4000269c <handle_trap+0x1c>

400026a0 <exit>:
400026a0:	ff010113          	addi	sp,sp,-16
400026a4:	00112623          	sw	ra,12(sp)
400026a8:	fb9ff0ef          	jal	40002660 <tohost_exit>

400026ac <abort>:
400026ac:	fffff797          	auipc	a5,0xfffff
400026b0:	95478793          	addi	a5,a5,-1708 # 40001000 <tohost>
400026b4:	10d00613          	li	a2,269
400026b8:	00000693          	li	a3,0
400026bc:	00c7a023          	sw	a2,0(a5)
400026c0:	00d7a223          	sw	a3,4(a5)
400026c4:	0000006f          	j	400026c4 <abort+0x18>

400026c8 <printstr>:
400026c8:	00054783          	lbu	a5,0(a0)
400026cc:	f8010113          	addi	sp,sp,-128
400026d0:	03f10613          	addi	a2,sp,63
400026d4:	00050813          	mv	a6,a0
400026d8:	fc067613          	andi	a2,a2,-64
400026dc:	00000893          	li	a7,0
400026e0:	0a078063          	beqz	a5,40002780 <printstr+0xb8>
400026e4:	00050793          	mv	a5,a0
400026e8:	0017c703          	lbu	a4,1(a5)
400026ec:	00178793          	addi	a5,a5,1
400026f0:	fe071ce3          	bnez	a4,400026e8 <printstr+0x20>
400026f4:	40a78333          	sub	t1,a5,a0
400026f8:	00000393          	li	t2,0
400026fc:	04000713          	li	a4,64
40002700:	00e62023          	sw	a4,0(a2)
40002704:	00000793          	li	a5,0
40002708:	00f62223          	sw	a5,4(a2)
4000270c:	00100713          	li	a4,1
40002710:	00e62423          	sw	a4,8(a2)
40002714:	00000793          	li	a5,0
40002718:	00f62623          	sw	a5,12(a2)
4000271c:	01062823          	sw	a6,16(a2)
40002720:	01162a23          	sw	a7,20(a2)
40002724:	00662c23          	sw	t1,24(a2)
40002728:	00762e23          	sw	t2,28(a2)
4000272c:	0ff0000f          	fence
40002730:	fffff697          	auipc	a3,0xfffff
40002734:	8d068693          	addi	a3,a3,-1840 # 40001000 <tohost>
40002738:	00c6a023          	sw	a2,0(a3)
4000273c:	00000793          	li	a5,0
40002740:	00f6a223          	sw	a5,4(a3)
40002744:	fffff697          	auipc	a3,0xfffff
40002748:	8fc68693          	addi	a3,a3,-1796 # 40001040 <fromhost>
4000274c:	0006a703          	lw	a4,0(a3)
40002750:	0046a783          	lw	a5,4(a3)
40002754:	00f76733          	or	a4,a4,a5
40002758:	fe070ae3          	beqz	a4,4000274c <printstr+0x84>
4000275c:	00000793          	li	a5,0
40002760:	00f6a023          	sw	a5,0(a3)
40002764:	00000813          	li	a6,0
40002768:	0106a223          	sw	a6,4(a3)
4000276c:	0ff0000f          	fence
40002770:	00062703          	lw	a4,0(a2)
40002774:	00462783          	lw	a5,4(a2)
40002778:	08010113          	addi	sp,sp,128
4000277c:	00008067          	ret
40002780:	00000313          	li	t1,0
40002784:	00000393          	li	t2,0
40002788:	f75ff06f          	j	400026fc <printstr+0x34>
4000278c:	00050463          	beqz	a0,40002794 <printstr+0xcc>
40002790:	0000006f          	j	40002790 <printstr+0xc8>
40002794:	00008067          	ret

40002798 <printhex>:
40002798:	fd010113          	addi	sp,sp,-48
4000279c:	00050713          	mv	a4,a0
400027a0:	02112623          	sw	ra,44(sp)
400027a4:	00c10513          	addi	a0,sp,12
400027a8:	01b10693          	addi	a3,sp,27
400027ac:	00900813          	li	a6,9
400027b0:	0080006f          	j	400027b8 <printhex+0x20>
400027b4:	00078693          	mv	a3,a5
400027b8:	00f77793          	andi	a5,a4,15
400027bc:	00f837b3          	sltu	a5,a6,a5
400027c0:	40f007b3          	neg	a5,a5
400027c4:	0277f793          	andi	a5,a5,39
400027c8:	00f77613          	andi	a2,a4,15
400027cc:	03078793          	addi	a5,a5,48
400027d0:	00f607b3          	add	a5,a2,a5
400027d4:	00f68023          	sb	a5,0(a3)
400027d8:	01c59613          	slli	a2,a1,0x1c
400027dc:	00475713          	srli	a4,a4,0x4
400027e0:	fff68793          	addi	a5,a3,-1
400027e4:	00e66733          	or	a4,a2,a4
400027e8:	0045d593          	srli	a1,a1,0x4
400027ec:	fcd514e3          	bne	a0,a3,400027b4 <printhex+0x1c>
400027f0:	00010e23          	sb	zero,28(sp)
400027f4:	ed5ff0ef          	jal	400026c8 <printstr>
400027f8:	02c12083          	lw	ra,44(sp)
400027fc:	03010113          	addi	sp,sp,48
40002800:	00008067          	ret

40002804 <printf>:
40002804:	fc010113          	addi	sp,sp,-64
40002808:	02410313          	addi	t1,sp,36
4000280c:	02b12223          	sw	a1,36(sp)
40002810:	02c12423          	sw	a2,40(sp)
40002814:	02d12623          	sw	a3,44(sp)
40002818:	00050613          	mv	a2,a0
4000281c:	00030693          	mv	a3,t1
40002820:	00000517          	auipc	a0,0x0
40002824:	d0850513          	addi	a0,a0,-760 # 40002528 <putchar>
40002828:	00000593          	li	a1,0
4000282c:	00112e23          	sw	ra,28(sp)
40002830:	02e12823          	sw	a4,48(sp)
40002834:	02f12a23          	sw	a5,52(sp)
40002838:	03012c23          	sw	a6,56(sp)
4000283c:	03112e23          	sw	a7,60(sp)
40002840:	00612623          	sw	t1,12(sp)
40002844:	fd4ff0ef          	jal	40002018 <vprintfmt>
40002848:	01c12083          	lw	ra,28(sp)
4000284c:	00000513          	li	a0,0
40002850:	04010113          	addi	sp,sp,64
40002854:	00008067          	ret

40002858 <sprintf>:
40002858:	fb010113          	addi	sp,sp,-80
4000285c:	03810e13          	addi	t3,sp,56
40002860:	02812423          	sw	s0,40(sp)
40002864:	00a12623          	sw	a0,12(sp)
40002868:	00050413          	mv	s0,a0
4000286c:	02c12c23          	sw	a2,56(sp)
40002870:	02d12e23          	sw	a3,60(sp)
40002874:	00058613          	mv	a2,a1
40002878:	00000517          	auipc	a0,0x0
4000287c:	c9850513          	addi	a0,a0,-872 # 40002510 <sprintf_putch.0>
40002880:	00c10593          	addi	a1,sp,12
40002884:	000e0693          	mv	a3,t3
40002888:	02112623          	sw	ra,44(sp)
4000288c:	04f12223          	sw	a5,68(sp)
40002890:	04e12023          	sw	a4,64(sp)
40002894:	05012423          	sw	a6,72(sp)
40002898:	05112623          	sw	a7,76(sp)
4000289c:	01c12e23          	sw	t3,28(sp)
400028a0:	f78ff0ef          	jal	40002018 <vprintfmt>
400028a4:	00c12783          	lw	a5,12(sp)
400028a8:	00078023          	sb	zero,0(a5)
400028ac:	00c12503          	lw	a0,12(sp)
400028b0:	02c12083          	lw	ra,44(sp)
400028b4:	40850533          	sub	a0,a0,s0
400028b8:	02812403          	lw	s0,40(sp)
400028bc:	05010113          	addi	sp,sp,80
400028c0:	00008067          	ret

400028c4 <memcpy>:
400028c4:	00c5e7b3          	or	a5,a1,a2
400028c8:	00f567b3          	or	a5,a0,a5
400028cc:	0037f793          	andi	a5,a5,3
400028d0:	00c50833          	add	a6,a0,a2
400028d4:	02078463          	beqz	a5,400028fc <memcpy+0x38>
400028d8:	00c58633          	add	a2,a1,a2
400028dc:	00050793          	mv	a5,a0
400028e0:	0b057663          	bgeu	a0,a6,4000298c <memcpy+0xc8>
400028e4:	0005c703          	lbu	a4,0(a1)
400028e8:	00158593          	addi	a1,a1,1
400028ec:	00178793          	addi	a5,a5,1
400028f0:	fee78fa3          	sb	a4,-1(a5)
400028f4:	fec598e3          	bne	a1,a2,400028e4 <memcpy+0x20>
400028f8:	00008067          	ret
400028fc:	02050693          	addi	a3,a0,32
40002900:	0906f863          	bgeu	a3,a6,40002990 <memcpy+0xcc>
40002904:	00068793          	mv	a5,a3
40002908:	00058713          	mv	a4,a1
4000290c:	00072383          	lw	t2,0(a4)
40002910:	00472283          	lw	t0,4(a4)
40002914:	00872f83          	lw	t6,8(a4)
40002918:	00c72f03          	lw	t5,12(a4)
4000291c:	01072e83          	lw	t4,16(a4)
40002920:	01472e03          	lw	t3,20(a4)
40002924:	01872303          	lw	t1,24(a4)
40002928:	01c72883          	lw	a7,28(a4)
4000292c:	02078793          	addi	a5,a5,32
40002930:	fc77a023          	sw	t2,-64(a5)
40002934:	fc57a223          	sw	t0,-60(a5)
40002938:	fdf7a423          	sw	t6,-56(a5)
4000293c:	fde7a623          	sw	t5,-52(a5)
40002940:	fdd7a823          	sw	t4,-48(a5)
40002944:	fdc7aa23          	sw	t3,-44(a5)
40002948:	fc67ac23          	sw	t1,-40(a5)
4000294c:	fd17ae23          	sw	a7,-36(a5)
40002950:	02070713          	addi	a4,a4,32
40002954:	fb07ece3          	bltu	a5,a6,4000290c <memcpy+0x48>
40002958:	fdf60613          	addi	a2,a2,-33
4000295c:	fe067793          	andi	a5,a2,-32
40002960:	02078793          	addi	a5,a5,32
40002964:	fe067613          	andi	a2,a2,-32
40002968:	00f585b3          	add	a1,a1,a5
4000296c:	00c687b3          	add	a5,a3,a2
40002970:	f907f4e3          	bgeu	a5,a6,400028f8 <memcpy+0x34>
40002974:	0005a703          	lw	a4,0(a1)
40002978:	00478793          	addi	a5,a5,4
4000297c:	00458593          	addi	a1,a1,4
40002980:	fee7ae23          	sw	a4,-4(a5)
40002984:	ff07e8e3          	bltu	a5,a6,40002974 <memcpy+0xb0>
40002988:	00008067          	ret
4000298c:	00008067          	ret
40002990:	00050793          	mv	a5,a0
40002994:	fddff06f          	j	40002970 <memcpy+0xac>

40002998 <memset>:
40002998:	00c567b3          	or	a5,a0,a2
4000299c:	0037f793          	andi	a5,a5,3
400029a0:	00c50633          	add	a2,a0,a2
400029a4:	02078063          	beqz	a5,400029c4 <memset+0x2c>
400029a8:	0ff5f593          	zext.b	a1,a1
400029ac:	00050793          	mv	a5,a0
400029b0:	04c57063          	bgeu	a0,a2,400029f0 <memset+0x58>
400029b4:	00178793          	addi	a5,a5,1
400029b8:	feb78fa3          	sb	a1,-1(a5)
400029bc:	fec79ce3          	bne	a5,a2,400029b4 <memset+0x1c>
400029c0:	00008067          	ret
400029c4:	0ff5f593          	zext.b	a1,a1
400029c8:	00859713          	slli	a4,a1,0x8
400029cc:	00b70733          	add	a4,a4,a1
400029d0:	01071793          	slli	a5,a4,0x10
400029d4:	00f70733          	add	a4,a4,a5
400029d8:	fec574e3          	bgeu	a0,a2,400029c0 <memset+0x28>
400029dc:	00050793          	mv	a5,a0
400029e0:	00478793          	addi	a5,a5,4
400029e4:	fee7ae23          	sw	a4,-4(a5)
400029e8:	fec7ece3          	bltu	a5,a2,400029e0 <memset+0x48>
400029ec:	00008067          	ret
400029f0:	00008067          	ret

400029f4 <_init>:
400029f4:	f6010113          	addi	sp,sp,-160
400029f8:	00001797          	auipc	a5,0x1
400029fc:	19878793          	addi	a5,a5,408 # 40003b90 <_tdata_begin>
40002a00:	09412423          	sw	s4,136(sp)
40002a04:	00001a17          	auipc	s4,0x1
40002a08:	18ca0a13          	addi	s4,s4,396 # 40003b90 <_tdata_begin>
40002a0c:	09312623          	sw	s3,140(sp)
40002a10:	40fa09b3          	sub	s3,s4,a5
40002a14:	08912a23          	sw	s1,148(sp)
40002a18:	09212823          	sw	s2,144(sp)
40002a1c:	00050493          	mv	s1,a0
40002a20:	00058913          	mv	s2,a1
40002a24:	00020513          	mv	a0,tp
40002a28:	00078593          	mv	a1,a5
40002a2c:	00098613          	mv	a2,s3
40002a30:	08112e23          	sw	ra,156(sp)
40002a34:	08812c23          	sw	s0,152(sp)
40002a38:	09512223          	sw	s5,132(sp)
40002a3c:	00020a93          	mv	s5,tp
40002a40:	e85ff0ef          	jal	400028c4 <memcpy>
40002a44:	88418613          	addi	a2,gp,-1916 # 40003c04 <_tbss_end>
40002a48:	41460633          	sub	a2,a2,s4
40002a4c:	00000593          	li	a1,0
40002a50:	013a8533          	add	a0,s5,s3
40002a54:	f45ff0ef          	jal	40002998 <memset>
40002a58:	00090593          	mv	a1,s2
40002a5c:	00048513          	mv	a0,s1
40002a60:	da0ff0ef          	jal	40002000 <thread_entry>
40002a64:	00000593          	li	a1,0
40002a68:	00000513          	li	a0,0
40002a6c:	605000ef          	jal	40003870 <main>
40002a70:	00001917          	auipc	s2,0x1
40002a74:	11890913          	addi	s2,s2,280 # 40003b88 <counters>
40002a78:	00092683          	lw	a3,0(s2)
40002a7c:	03f10413          	addi	s0,sp,63
40002a80:	fc047413          	andi	s0,s0,-64
40002a84:	00050493          	mv	s1,a0
40002a88:	04069463          	bnez	a3,40002ad0 <_init+0xdc>
40002a8c:	00492683          	lw	a3,4(s2)
40002a90:	00069663          	bnez	a3,40002a9c <_init+0xa8>
40002a94:	00048513          	mv	a0,s1
40002a98:	bc9ff0ef          	jal	40002660 <tohost_exit>
40002a9c:	00040913          	mv	s2,s0
40002aa0:	00001997          	auipc	s3,0x1
40002aa4:	0e098993          	addi	s3,s3,224 # 40003b80 <counter_names>
40002aa8:	0049a603          	lw	a2,4(s3)
40002aac:	00090513          	mv	a0,s2
40002ab0:	00001597          	auipc	a1,0x1
40002ab4:	e1c58593          	addi	a1,a1,-484 # 400038cc <main+0x5c>
40002ab8:	da1ff0ef          	jal	40002858 <sprintf>
40002abc:	00a90933          	add	s2,s2,a0
40002ac0:	fd240ae3          	beq	s0,s2,40002a94 <_init+0xa0>
40002ac4:	00040513          	mv	a0,s0
40002ac8:	c01ff0ef          	jal	400026c8 <printstr>
40002acc:	fc9ff06f          	j	40002a94 <_init+0xa0>
40002ad0:	00001997          	auipc	s3,0x1
40002ad4:	0b098993          	addi	s3,s3,176 # 40003b80 <counter_names>
40002ad8:	0009a603          	lw	a2,0(s3)
40002adc:	00001597          	auipc	a1,0x1
40002ae0:	df058593          	addi	a1,a1,-528 # 400038cc <main+0x5c>
40002ae4:	00040513          	mv	a0,s0
40002ae8:	d71ff0ef          	jal	40002858 <sprintf>
40002aec:	00492683          	lw	a3,4(s2)
40002af0:	00a40933          	add	s2,s0,a0
40002af4:	fc0686e3          	beqz	a3,40002ac0 <_init+0xcc>
40002af8:	fb1ff06f          	j	40002aa8 <_init+0xb4>

40002afc <strlen>:
40002afc:	00054783          	lbu	a5,0(a0)
40002b00:	00078e63          	beqz	a5,40002b1c <strlen+0x20>
40002b04:	00050793          	mv	a5,a0
40002b08:	0017c703          	lbu	a4,1(a5)
40002b0c:	00178793          	addi	a5,a5,1
40002b10:	fe071ce3          	bnez	a4,40002b08 <strlen+0xc>
40002b14:	40a78533          	sub	a0,a5,a0
40002b18:	00008067          	ret
40002b1c:	00000513          	li	a0,0
40002b20:	00008067          	ret

40002b24 <strnlen>:
40002b24:	00b506b3          	add	a3,a0,a1
40002b28:	00050793          	mv	a5,a0
40002b2c:	00059863          	bnez	a1,40002b3c <strnlen+0x18>
40002b30:	0240006f          	j	40002b54 <strnlen+0x30>
40002b34:	00178793          	addi	a5,a5,1
40002b38:	00f68a63          	beq	a3,a5,40002b4c <strnlen+0x28>
40002b3c:	0007c703          	lbu	a4,0(a5)
40002b40:	fe071ae3          	bnez	a4,40002b34 <strnlen+0x10>
40002b44:	40a78533          	sub	a0,a5,a0
40002b48:	00008067          	ret
40002b4c:	40a68533          	sub	a0,a3,a0
40002b50:	00008067          	ret
40002b54:	00000513          	li	a0,0
40002b58:	00008067          	ret

40002b5c <strcmp>:
40002b5c:	00054783          	lbu	a5,0(a0)
40002b60:	00158593          	addi	a1,a1,1
40002b64:	00150513          	addi	a0,a0,1
40002b68:	fff5c703          	lbu	a4,-1(a1)
40002b6c:	00078863          	beqz	a5,40002b7c <strcmp+0x20>
40002b70:	fee786e3          	beq	a5,a4,40002b5c <strcmp>
40002b74:	40e78533          	sub	a0,a5,a4
40002b78:	00008067          	ret
40002b7c:	00000793          	li	a5,0
40002b80:	ff5ff06f          	j	40002b74 <strcmp+0x18>

40002b84 <strcpy>:
40002b84:	00050793          	mv	a5,a0
40002b88:	0005c703          	lbu	a4,0(a1)
40002b8c:	00178793          	addi	a5,a5,1
40002b90:	00158593          	addi	a1,a1,1
40002b94:	fee78fa3          	sb	a4,-1(a5)
40002b98:	fe0718e3          	bnez	a4,40002b88 <strcpy+0x4>
40002b9c:	00008067          	ret

40002ba0 <atol>:
40002ba0:	00054703          	lbu	a4,0(a0)
40002ba4:	02000693          	li	a3,32
40002ba8:	00050793          	mv	a5,a0
40002bac:	00d71863          	bne	a4,a3,40002bbc <atol+0x1c>
40002bb0:	0017c703          	lbu	a4,1(a5)
40002bb4:	00178793          	addi	a5,a5,1
40002bb8:	fed70ce3          	beq	a4,a3,40002bb0 <atol+0x10>
40002bbc:	02d00693          	li	a3,45
40002bc0:	04d70e63          	beq	a4,a3,40002c1c <atol+0x7c>
40002bc4:	02b00693          	li	a3,43
40002bc8:	04d70063          	beq	a4,a3,40002c08 <atol+0x68>
40002bcc:	0007c683          	lbu	a3,0(a5)
40002bd0:	00000593          	li	a1,0
40002bd4:	04068c63          	beqz	a3,40002c2c <atol+0x8c>
40002bd8:	00000513          	li	a0,0
40002bdc:	00178793          	addi	a5,a5,1
40002be0:	00251713          	slli	a4,a0,0x2
40002be4:	fd068613          	addi	a2,a3,-48
40002be8:	0007c683          	lbu	a3,0(a5)
40002bec:	00a70733          	add	a4,a4,a0
40002bf0:	00171713          	slli	a4,a4,0x1
40002bf4:	00e60533          	add	a0,a2,a4
40002bf8:	fe0692e3          	bnez	a3,40002bdc <atol+0x3c>
40002bfc:	02058a63          	beqz	a1,40002c30 <atol+0x90>
40002c00:	40a00533          	neg	a0,a0
40002c04:	00008067          	ret
40002c08:	0017c683          	lbu	a3,1(a5)
40002c0c:	00178793          	addi	a5,a5,1
40002c10:	00068e63          	beqz	a3,40002c2c <atol+0x8c>
40002c14:	00000593          	li	a1,0
40002c18:	fc1ff06f          	j	40002bd8 <atol+0x38>
40002c1c:	0017c683          	lbu	a3,1(a5)
40002c20:	00100593          	li	a1,1
40002c24:	00178793          	addi	a5,a5,1
40002c28:	fa0698e3          	bnez	a3,40002bd8 <atol+0x38>
40002c2c:	00000513          	li	a0,0
40002c30:	00008067          	ret

40002c34 <__moddi3>:
40002c34:	00058e13          	mv	t3,a1
40002c38:	00000813          	li	a6,0
40002c3c:	0005dc63          	bgez	a1,40002c54 <__moddi3+0x20>
40002c40:	00a037b3          	snez	a5,a0
40002c44:	40b00e33          	neg	t3,a1
40002c48:	40fe0e33          	sub	t3,t3,a5
40002c4c:	40a00533          	neg	a0,a0
40002c50:	fff00813          	li	a6,-1
40002c54:	0006da63          	bgez	a3,40002c68 <__moddi3+0x34>
40002c58:	00c037b3          	snez	a5,a2
40002c5c:	40d006b3          	neg	a3,a3
40002c60:	40f686b3          	sub	a3,a3,a5
40002c64:	40c00633          	neg	a2,a2
40002c68:	00060893          	mv	a7,a2
40002c6c:	00050793          	mv	a5,a0
40002c70:	000e0593          	mv	a1,t3
40002c74:	22069063          	bnez	a3,40002e94 <__moddi3+0x260>
40002c78:	40004737          	lui	a4,0x40004
40002c7c:	a3070713          	addi	a4,a4,-1488 # 40003a30 <__clz_tab>
40002c80:	0ece7663          	bgeu	t3,a2,40002d6c <__moddi3+0x138>
40002c84:	000106b7          	lui	a3,0x10
40002c88:	0cd67863          	bgeu	a2,a3,40002d58 <__moddi3+0x124>
40002c8c:	10063693          	sltiu	a3,a2,256
40002c90:	0016b693          	seqz	a3,a3
40002c94:	00369693          	slli	a3,a3,0x3
40002c98:	00d65333          	srl	t1,a2,a3
40002c9c:	00670733          	add	a4,a4,t1
40002ca0:	00074703          	lbu	a4,0(a4)
40002ca4:	00d70733          	add	a4,a4,a3
40002ca8:	02000693          	li	a3,32
40002cac:	40e68333          	sub	t1,a3,a4
40002cb0:	00e68c63          	beq	a3,a4,40002cc8 <__moddi3+0x94>
40002cb4:	006e15b3          	sll	a1,t3,t1
40002cb8:	00e55733          	srl	a4,a0,a4
40002cbc:	006618b3          	sll	a7,a2,t1
40002cc0:	00b765b3          	or	a1,a4,a1
40002cc4:	006517b3          	sll	a5,a0,t1
40002cc8:	0108d613          	srli	a2,a7,0x10
40002ccc:	02c5d6b3          	divu	a3,a1,a2
40002cd0:	01089513          	slli	a0,a7,0x10
40002cd4:	01055513          	srli	a0,a0,0x10
40002cd8:	0107d713          	srli	a4,a5,0x10
40002cdc:	02c5f5b3          	remu	a1,a1,a2
40002ce0:	02a686b3          	mul	a3,a3,a0
40002ce4:	01059593          	slli	a1,a1,0x10
40002ce8:	00b76733          	or	a4,a4,a1
40002cec:	00d77a63          	bgeu	a4,a3,40002d00 <__moddi3+0xcc>
40002cf0:	00e88733          	add	a4,a7,a4
40002cf4:	01176663          	bltu	a4,a7,40002d00 <__moddi3+0xcc>
40002cf8:	00d77463          	bgeu	a4,a3,40002d00 <__moddi3+0xcc>
40002cfc:	01170733          	add	a4,a4,a7
40002d00:	40d70733          	sub	a4,a4,a3
40002d04:	02c756b3          	divu	a3,a4,a2
40002d08:	02c77733          	remu	a4,a4,a2
40002d0c:	02a686b3          	mul	a3,a3,a0
40002d10:	01079793          	slli	a5,a5,0x10
40002d14:	01071713          	slli	a4,a4,0x10
40002d18:	0107d793          	srli	a5,a5,0x10
40002d1c:	00e7e7b3          	or	a5,a5,a4
40002d20:	00d7fa63          	bgeu	a5,a3,40002d34 <__moddi3+0x100>
40002d24:	00f887b3          	add	a5,a7,a5
40002d28:	0117e663          	bltu	a5,a7,40002d34 <__moddi3+0x100>
40002d2c:	00d7f463          	bgeu	a5,a3,40002d34 <__moddi3+0x100>
40002d30:	011787b3          	add	a5,a5,a7
40002d34:	40d787b3          	sub	a5,a5,a3
40002d38:	0067d533          	srl	a0,a5,t1
40002d3c:	00000593          	li	a1,0
40002d40:	00080a63          	beqz	a6,40002d54 <__moddi3+0x120>
40002d44:	00a037b3          	snez	a5,a0
40002d48:	40b005b3          	neg	a1,a1
40002d4c:	40f585b3          	sub	a1,a1,a5
40002d50:	40a00533          	neg	a0,a0
40002d54:	00008067          	ret
40002d58:	01000337          	lui	t1,0x1000
40002d5c:	01800693          	li	a3,24
40002d60:	f2667ce3          	bgeu	a2,t1,40002c98 <__moddi3+0x64>
40002d64:	01000693          	li	a3,16
40002d68:	f31ff06f          	j	40002c98 <__moddi3+0x64>
40002d6c:	00000693          	li	a3,0
40002d70:	00060c63          	beqz	a2,40002d88 <__moddi3+0x154>
40002d74:	000106b7          	lui	a3,0x10
40002d78:	06d67e63          	bgeu	a2,a3,40002df4 <__moddi3+0x1c0>
40002d7c:	10063693          	sltiu	a3,a2,256
40002d80:	0016b693          	seqz	a3,a3
40002d84:	00369693          	slli	a3,a3,0x3
40002d88:	00d655b3          	srl	a1,a2,a3
40002d8c:	00b70733          	add	a4,a4,a1
40002d90:	00074703          	lbu	a4,0(a4)
40002d94:	00d70733          	add	a4,a4,a3
40002d98:	02000693          	li	a3,32
40002d9c:	40e68333          	sub	t1,a3,a4
40002da0:	06e69463          	bne	a3,a4,40002e08 <__moddi3+0x1d4>
40002da4:	40ce0733          	sub	a4,t3,a2
40002da8:	0108d593          	srli	a1,a7,0x10
40002dac:	02b75633          	divu	a2,a4,a1
40002db0:	01089513          	slli	a0,a7,0x10
40002db4:	01055513          	srli	a0,a0,0x10
40002db8:	0107d693          	srli	a3,a5,0x10
40002dbc:	02b77733          	remu	a4,a4,a1
40002dc0:	02a60633          	mul	a2,a2,a0
40002dc4:	01071713          	slli	a4,a4,0x10
40002dc8:	00e6e733          	or	a4,a3,a4
40002dcc:	00c77a63          	bgeu	a4,a2,40002de0 <__moddi3+0x1ac>
40002dd0:	00e88733          	add	a4,a7,a4
40002dd4:	01176663          	bltu	a4,a7,40002de0 <__moddi3+0x1ac>
40002dd8:	00c77463          	bgeu	a4,a2,40002de0 <__moddi3+0x1ac>
40002ddc:	01170733          	add	a4,a4,a7
40002de0:	40c70733          	sub	a4,a4,a2
40002de4:	02b756b3          	divu	a3,a4,a1
40002de8:	02b77733          	remu	a4,a4,a1
40002dec:	02a686b3          	mul	a3,a3,a0
40002df0:	f21ff06f          	j	40002d10 <__moddi3+0xdc>
40002df4:	010005b7          	lui	a1,0x1000
40002df8:	01800693          	li	a3,24
40002dfc:	f8b676e3          	bgeu	a2,a1,40002d88 <__moddi3+0x154>
40002e00:	01000693          	li	a3,16
40002e04:	f85ff06f          	j	40002d88 <__moddi3+0x154>
40002e08:	006618b3          	sll	a7,a2,t1
40002e0c:	00ee56b3          	srl	a3,t3,a4
40002e10:	006517b3          	sll	a5,a0,t1
40002e14:	00e55733          	srl	a4,a0,a4
40002e18:	0108d513          	srli	a0,a7,0x10
40002e1c:	02a6d5b3          	divu	a1,a3,a0
40002e20:	006e1e33          	sll	t3,t3,t1
40002e24:	01c76733          	or	a4,a4,t3
40002e28:	01089e13          	slli	t3,a7,0x10
40002e2c:	010e5e13          	srli	t3,t3,0x10
40002e30:	02a6f6b3          	remu	a3,a3,a0
40002e34:	03c585b3          	mul	a1,a1,t3
40002e38:	01069613          	slli	a2,a3,0x10
40002e3c:	01075693          	srli	a3,a4,0x10
40002e40:	00c6e6b3          	or	a3,a3,a2
40002e44:	00b6fa63          	bgeu	a3,a1,40002e58 <__moddi3+0x224>
40002e48:	00d886b3          	add	a3,a7,a3
40002e4c:	0116e663          	bltu	a3,a7,40002e58 <__moddi3+0x224>
40002e50:	00b6f463          	bgeu	a3,a1,40002e58 <__moddi3+0x224>
40002e54:	011686b3          	add	a3,a3,a7
40002e58:	40b686b3          	sub	a3,a3,a1
40002e5c:	02a6d633          	divu	a2,a3,a0
40002e60:	01071713          	slli	a4,a4,0x10
40002e64:	01075713          	srli	a4,a4,0x10
40002e68:	02a6f6b3          	remu	a3,a3,a0
40002e6c:	03c60633          	mul	a2,a2,t3
40002e70:	01069693          	slli	a3,a3,0x10
40002e74:	00d76733          	or	a4,a4,a3
40002e78:	00c77a63          	bgeu	a4,a2,40002e8c <__moddi3+0x258>
40002e7c:	00e88733          	add	a4,a7,a4
40002e80:	01176663          	bltu	a4,a7,40002e8c <__moddi3+0x258>
40002e84:	00c77463          	bgeu	a4,a2,40002e8c <__moddi3+0x258>
40002e88:	01170733          	add	a4,a4,a7
40002e8c:	40c70733          	sub	a4,a4,a2
40002e90:	f19ff06f          	j	40002da8 <__moddi3+0x174>
40002e94:	eade66e3          	bltu	t3,a3,40002d40 <__moddi3+0x10c>
40002e98:	00010737          	lui	a4,0x10
40002e9c:	04e6fc63          	bgeu	a3,a4,40002ef4 <__moddi3+0x2c0>
40002ea0:	1006b713          	sltiu	a4,a3,256
40002ea4:	00173713          	seqz	a4,a4
40002ea8:	00371713          	slli	a4,a4,0x3
40002eac:	400048b7          	lui	a7,0x40004
40002eb0:	00e6d333          	srl	t1,a3,a4
40002eb4:	a3088893          	addi	a7,a7,-1488 # 40003a30 <__clz_tab>
40002eb8:	006888b3          	add	a7,a7,t1
40002ebc:	0008c883          	lbu	a7,0(a7)
40002ec0:	02000313          	li	t1,32
40002ec4:	00e888b3          	add	a7,a7,a4
40002ec8:	41130733          	sub	a4,t1,a7
40002ecc:	03131e63          	bne	t1,a7,40002f08 <__moddi3+0x2d4>
40002ed0:	01c6e463          	bltu	a3,t3,40002ed8 <__moddi3+0x2a4>
40002ed4:	00c56c63          	bltu	a0,a2,40002eec <__moddi3+0x2b8>
40002ed8:	40c50633          	sub	a2,a0,a2
40002edc:	40de06b3          	sub	a3,t3,a3
40002ee0:	00c535b3          	sltu	a1,a0,a2
40002ee4:	00060793          	mv	a5,a2
40002ee8:	40b685b3          	sub	a1,a3,a1
40002eec:	00078513          	mv	a0,a5
40002ef0:	e51ff06f          	j	40002d40 <__moddi3+0x10c>
40002ef4:	010008b7          	lui	a7,0x1000
40002ef8:	01800713          	li	a4,24
40002efc:	fb16f8e3          	bgeu	a3,a7,40002eac <__moddi3+0x278>
40002f00:	01000713          	li	a4,16
40002f04:	fa9ff06f          	j	40002eac <__moddi3+0x278>
40002f08:	00e696b3          	sll	a3,a3,a4
40002f0c:	01165333          	srl	t1,a2,a7
40002f10:	00d36333          	or	t1,t1,a3
40002f14:	011e57b3          	srl	a5,t3,a7
40002f18:	01035e93          	srli	t4,t1,0x10
40002f1c:	03d7dfb3          	divu	t6,a5,t4
40002f20:	00ee1e33          	sll	t3,t3,a4
40002f24:	011555b3          	srl	a1,a0,a7
40002f28:	01c5e5b3          	or	a1,a1,t3
40002f2c:	01031e13          	slli	t3,t1,0x10
40002f30:	010e5e13          	srli	t3,t3,0x10
40002f34:	00e61633          	sll	a2,a2,a4
40002f38:	00e51533          	sll	a0,a0,a4
40002f3c:	03d7f7b3          	remu	a5,a5,t4
40002f40:	03fe0f33          	mul	t5,t3,t6
40002f44:	01079693          	slli	a3,a5,0x10
40002f48:	0105d793          	srli	a5,a1,0x10
40002f4c:	00d7e7b3          	or	a5,a5,a3
40002f50:	000f8693          	mv	a3,t6
40002f54:	01e7fe63          	bgeu	a5,t5,40002f70 <__moddi3+0x33c>
40002f58:	00f307b3          	add	a5,t1,a5
40002f5c:	ffff8693          	addi	a3,t6,-1
40002f60:	0067e863          	bltu	a5,t1,40002f70 <__moddi3+0x33c>
40002f64:	01e7f663          	bgeu	a5,t5,40002f70 <__moddi3+0x33c>
40002f68:	ffef8693          	addi	a3,t6,-2
40002f6c:	006787b3          	add	a5,a5,t1
40002f70:	41e787b3          	sub	a5,a5,t5
40002f74:	03d7df33          	divu	t5,a5,t4
40002f78:	01059593          	slli	a1,a1,0x10
40002f7c:	0105d593          	srli	a1,a1,0x10
40002f80:	03d7f7b3          	remu	a5,a5,t4
40002f84:	03ee0e33          	mul	t3,t3,t5
40002f88:	01079793          	slli	a5,a5,0x10
40002f8c:	00f5e5b3          	or	a1,a1,a5
40002f90:	000f0793          	mv	a5,t5
40002f94:	01c5fe63          	bgeu	a1,t3,40002fb0 <__moddi3+0x37c>
40002f98:	00b305b3          	add	a1,t1,a1
40002f9c:	ffff0793          	addi	a5,t5,-1
40002fa0:	0065e863          	bltu	a1,t1,40002fb0 <__moddi3+0x37c>
40002fa4:	01c5f663          	bgeu	a1,t3,40002fb0 <__moddi3+0x37c>
40002fa8:	ffef0793          	addi	a5,t5,-2
40002fac:	006585b3          	add	a1,a1,t1
40002fb0:	01069693          	slli	a3,a3,0x10
40002fb4:	00010fb7          	lui	t6,0x10
40002fb8:	00f6e6b3          	or	a3,a3,a5
40002fbc:	41c585b3          	sub	a1,a1,t3
40002fc0:	ffff8e13          	addi	t3,t6,-1 # ffff <buflen.1+0xffbf>
40002fc4:	01c6f7b3          	and	a5,a3,t3
40002fc8:	01065e93          	srli	t4,a2,0x10
40002fcc:	0106d693          	srli	a3,a3,0x10
40002fd0:	01c67e33          	and	t3,a2,t3
40002fd4:	03c78f33          	mul	t5,a5,t3
40002fd8:	03c68e33          	mul	t3,a3,t3
40002fdc:	03d787b3          	mul	a5,a5,t4
40002fe0:	03d686b3          	mul	a3,a3,t4
40002fe4:	01c78eb3          	add	t4,a5,t3
40002fe8:	010f5793          	srli	a5,t5,0x10
40002fec:	01d787b3          	add	a5,a5,t4
40002ff0:	01c7f463          	bgeu	a5,t3,40002ff8 <__moddi3+0x3c4>
40002ff4:	01f686b3          	add	a3,a3,t6
40002ff8:	0107de13          	srli	t3,a5,0x10
40002ffc:	00de06b3          	add	a3,t3,a3
40003000:	00010e37          	lui	t3,0x10
40003004:	fffe0e13          	addi	t3,t3,-1 # ffff <buflen.1+0xffbf>
40003008:	01c7f7b3          	and	a5,a5,t3
4000300c:	01079793          	slli	a5,a5,0x10
40003010:	01cf7f33          	and	t5,t5,t3
40003014:	01e787b3          	add	a5,a5,t5
40003018:	00d5e663          	bltu	a1,a3,40003024 <__moddi3+0x3f0>
4000301c:	00d59e63          	bne	a1,a3,40003038 <__moddi3+0x404>
40003020:	00f57c63          	bgeu	a0,a5,40003038 <__moddi3+0x404>
40003024:	40c78633          	sub	a2,a5,a2
40003028:	00c7be33          	sltu	t3,a5,a2
4000302c:	00060793          	mv	a5,a2
40003030:	006e0633          	add	a2,t3,t1
40003034:	40c686b3          	sub	a3,a3,a2
40003038:	40f507b3          	sub	a5,a0,a5
4000303c:	00f53533          	sltu	a0,a0,a5
40003040:	40d585b3          	sub	a1,a1,a3
40003044:	40a585b3          	sub	a1,a1,a0
40003048:	011598b3          	sll	a7,a1,a7
4000304c:	00e7d7b3          	srl	a5,a5,a4
40003050:	00f8e533          	or	a0,a7,a5
40003054:	00e5d5b3          	srl	a1,a1,a4
40003058:	ce9ff06f          	j	40002d40 <__moddi3+0x10c>

4000305c <__udivdi3>:
4000305c:	00050893          	mv	a7,a0
40003060:	00058313          	mv	t1,a1
40003064:	00060713          	mv	a4,a2
40003068:	00050813          	mv	a6,a0
4000306c:	00058793          	mv	a5,a1
40003070:	28069263          	bnez	a3,400032f4 <__udivdi3+0x298>
40003074:	400045b7          	lui	a1,0x40004
40003078:	a3058593          	addi	a1,a1,-1488 # 40003a30 <__clz_tab>
4000307c:	0ec37663          	bgeu	t1,a2,40003168 <__udivdi3+0x10c>
40003080:	000106b7          	lui	a3,0x10
40003084:	0cd67863          	bgeu	a2,a3,40003154 <__udivdi3+0xf8>
40003088:	10063693          	sltiu	a3,a2,256
4000308c:	0016b693          	seqz	a3,a3
40003090:	00369693          	slli	a3,a3,0x3
40003094:	00d65533          	srl	a0,a2,a3
40003098:	00a585b3          	add	a1,a1,a0
4000309c:	0005c583          	lbu	a1,0(a1)
400030a0:	02000513          	li	a0,32
400030a4:	00d586b3          	add	a3,a1,a3
400030a8:	40d505b3          	sub	a1,a0,a3
400030ac:	00d50c63          	beq	a0,a3,400030c4 <__udivdi3+0x68>
400030b0:	00b317b3          	sll	a5,t1,a1
400030b4:	00d8d6b3          	srl	a3,a7,a3
400030b8:	00b61733          	sll	a4,a2,a1
400030bc:	00f6e7b3          	or	a5,a3,a5
400030c0:	00b89833          	sll	a6,a7,a1
400030c4:	01075593          	srli	a1,a4,0x10
400030c8:	02b7d333          	divu	t1,a5,a1
400030cc:	01071613          	slli	a2,a4,0x10
400030d0:	01065613          	srli	a2,a2,0x10
400030d4:	02b7f7b3          	remu	a5,a5,a1
400030d8:	00030513          	mv	a0,t1
400030dc:	026608b3          	mul	a7,a2,t1
400030e0:	01079693          	slli	a3,a5,0x10
400030e4:	01085793          	srli	a5,a6,0x10
400030e8:	00d7e7b3          	or	a5,a5,a3
400030ec:	0117fe63          	bgeu	a5,a7,40003108 <__udivdi3+0xac>
400030f0:	00f707b3          	add	a5,a4,a5
400030f4:	fff30513          	addi	a0,t1,-1 # ffffff <buflen.1+0xffffbf>
400030f8:	00e7e863          	bltu	a5,a4,40003108 <__udivdi3+0xac>
400030fc:	0117f663          	bgeu	a5,a7,40003108 <__udivdi3+0xac>
40003100:	ffe30513          	addi	a0,t1,-2
40003104:	00e787b3          	add	a5,a5,a4
40003108:	411787b3          	sub	a5,a5,a7
4000310c:	02b7d8b3          	divu	a7,a5,a1
40003110:	01081813          	slli	a6,a6,0x10
40003114:	01085813          	srli	a6,a6,0x10
40003118:	02b7f7b3          	remu	a5,a5,a1
4000311c:	031606b3          	mul	a3,a2,a7
40003120:	01079793          	slli	a5,a5,0x10
40003124:	00f86833          	or	a6,a6,a5
40003128:	00088793          	mv	a5,a7
4000312c:	00d87c63          	bgeu	a6,a3,40003144 <__udivdi3+0xe8>
40003130:	01070833          	add	a6,a4,a6
40003134:	fff88793          	addi	a5,a7,-1 # ffffff <buflen.1+0xffffbf>
40003138:	00e86663          	bltu	a6,a4,40003144 <__udivdi3+0xe8>
4000313c:	00d87463          	bgeu	a6,a3,40003144 <__udivdi3+0xe8>
40003140:	ffe88793          	addi	a5,a7,-2
40003144:	01051513          	slli	a0,a0,0x10
40003148:	00f56533          	or	a0,a0,a5
4000314c:	00000593          	li	a1,0
40003150:	00008067          	ret
40003154:	01000537          	lui	a0,0x1000
40003158:	01800693          	li	a3,24
4000315c:	f2a67ce3          	bgeu	a2,a0,40003094 <__udivdi3+0x38>
40003160:	01000693          	li	a3,16
40003164:	f31ff06f          	j	40003094 <__udivdi3+0x38>
40003168:	00000693          	li	a3,0
4000316c:	00060c63          	beqz	a2,40003184 <__udivdi3+0x128>
40003170:	000107b7          	lui	a5,0x10
40003174:	0cf67063          	bgeu	a2,a5,40003234 <__udivdi3+0x1d8>
40003178:	10063693          	sltiu	a3,a2,256
4000317c:	0016b693          	seqz	a3,a3
40003180:	00369693          	slli	a3,a3,0x3
40003184:	00d657b3          	srl	a5,a2,a3
40003188:	00f585b3          	add	a1,a1,a5
4000318c:	0005c783          	lbu	a5,0(a1)
40003190:	00d787b3          	add	a5,a5,a3
40003194:	02000693          	li	a3,32
40003198:	40f685b3          	sub	a1,a3,a5
4000319c:	0af69663          	bne	a3,a5,40003248 <__udivdi3+0x1ec>
400031a0:	40c307b3          	sub	a5,t1,a2
400031a4:	00100593          	li	a1,1
400031a8:	01075893          	srli	a7,a4,0x10
400031ac:	0317de33          	divu	t3,a5,a7
400031b0:	01071613          	slli	a2,a4,0x10
400031b4:	01065613          	srli	a2,a2,0x10
400031b8:	01085693          	srli	a3,a6,0x10
400031bc:	0317f7b3          	remu	a5,a5,a7
400031c0:	000e0513          	mv	a0,t3
400031c4:	03c60333          	mul	t1,a2,t3
400031c8:	01079793          	slli	a5,a5,0x10
400031cc:	00f6e7b3          	or	a5,a3,a5
400031d0:	0067fe63          	bgeu	a5,t1,400031ec <__udivdi3+0x190>
400031d4:	00f707b3          	add	a5,a4,a5
400031d8:	fffe0513          	addi	a0,t3,-1
400031dc:	00e7e863          	bltu	a5,a4,400031ec <__udivdi3+0x190>
400031e0:	0067f663          	bgeu	a5,t1,400031ec <__udivdi3+0x190>
400031e4:	ffee0513          	addi	a0,t3,-2
400031e8:	00e787b3          	add	a5,a5,a4
400031ec:	406787b3          	sub	a5,a5,t1
400031f0:	0317d333          	divu	t1,a5,a7
400031f4:	01081813          	slli	a6,a6,0x10
400031f8:	01085813          	srli	a6,a6,0x10
400031fc:	0317f7b3          	remu	a5,a5,a7
40003200:	026606b3          	mul	a3,a2,t1
40003204:	01079793          	slli	a5,a5,0x10
40003208:	00f86833          	or	a6,a6,a5
4000320c:	00030793          	mv	a5,t1
40003210:	00d87c63          	bgeu	a6,a3,40003228 <__udivdi3+0x1cc>
40003214:	01070833          	add	a6,a4,a6
40003218:	fff30793          	addi	a5,t1,-1
4000321c:	00e86663          	bltu	a6,a4,40003228 <__udivdi3+0x1cc>
40003220:	00d87463          	bgeu	a6,a3,40003228 <__udivdi3+0x1cc>
40003224:	ffe30793          	addi	a5,t1,-2
40003228:	01051513          	slli	a0,a0,0x10
4000322c:	00f56533          	or	a0,a0,a5
40003230:	00008067          	ret
40003234:	010007b7          	lui	a5,0x1000
40003238:	01800693          	li	a3,24
4000323c:	f4f674e3          	bgeu	a2,a5,40003184 <__udivdi3+0x128>
40003240:	01000693          	li	a3,16
40003244:	f41ff06f          	j	40003184 <__udivdi3+0x128>
40003248:	00b61733          	sll	a4,a2,a1
4000324c:	00f356b3          	srl	a3,t1,a5
40003250:	01075513          	srli	a0,a4,0x10
40003254:	00b31333          	sll	t1,t1,a1
40003258:	00f8d7b3          	srl	a5,a7,a5
4000325c:	0067e7b3          	or	a5,a5,t1
40003260:	02a6d333          	divu	t1,a3,a0
40003264:	01071613          	slli	a2,a4,0x10
40003268:	01065613          	srli	a2,a2,0x10
4000326c:	00b89833          	sll	a6,a7,a1
40003270:	02a6f6b3          	remu	a3,a3,a0
40003274:	026608b3          	mul	a7,a2,t1
40003278:	01069593          	slli	a1,a3,0x10
4000327c:	0107d693          	srli	a3,a5,0x10
40003280:	00b6e6b3          	or	a3,a3,a1
40003284:	00030593          	mv	a1,t1
40003288:	0116fe63          	bgeu	a3,a7,400032a4 <__udivdi3+0x248>
4000328c:	00d706b3          	add	a3,a4,a3
40003290:	fff30593          	addi	a1,t1,-1
40003294:	00e6e863          	bltu	a3,a4,400032a4 <__udivdi3+0x248>
40003298:	0116f663          	bgeu	a3,a7,400032a4 <__udivdi3+0x248>
4000329c:	ffe30593          	addi	a1,t1,-2
400032a0:	00e686b3          	add	a3,a3,a4
400032a4:	411686b3          	sub	a3,a3,a7
400032a8:	02a6d8b3          	divu	a7,a3,a0
400032ac:	01079793          	slli	a5,a5,0x10
400032b0:	0107d793          	srli	a5,a5,0x10
400032b4:	02a6f6b3          	remu	a3,a3,a0
400032b8:	03160633          	mul	a2,a2,a7
400032bc:	01069693          	slli	a3,a3,0x10
400032c0:	00d7e7b3          	or	a5,a5,a3
400032c4:	00088693          	mv	a3,a7
400032c8:	00c7fe63          	bgeu	a5,a2,400032e4 <__udivdi3+0x288>
400032cc:	00f707b3          	add	a5,a4,a5
400032d0:	fff88693          	addi	a3,a7,-1
400032d4:	00e7e863          	bltu	a5,a4,400032e4 <__udivdi3+0x288>
400032d8:	00c7f663          	bgeu	a5,a2,400032e4 <__udivdi3+0x288>
400032dc:	ffe88693          	addi	a3,a7,-2
400032e0:	00e787b3          	add	a5,a5,a4
400032e4:	01059593          	slli	a1,a1,0x10
400032e8:	40c787b3          	sub	a5,a5,a2
400032ec:	00d5e5b3          	or	a1,a1,a3
400032f0:	eb9ff06f          	j	400031a8 <__udivdi3+0x14c>
400032f4:	18d5e663          	bltu	a1,a3,40003480 <__udivdi3+0x424>
400032f8:	000107b7          	lui	a5,0x10
400032fc:	04f6f463          	bgeu	a3,a5,40003344 <__udivdi3+0x2e8>
40003300:	1006b713          	sltiu	a4,a3,256
40003304:	00173713          	seqz	a4,a4
40003308:	00371713          	slli	a4,a4,0x3
4000330c:	400047b7          	lui	a5,0x40004
40003310:	00e6d5b3          	srl	a1,a3,a4
40003314:	a3078793          	addi	a5,a5,-1488 # 40003a30 <__clz_tab>
40003318:	00b787b3          	add	a5,a5,a1
4000331c:	0007c783          	lbu	a5,0(a5)
40003320:	00e787b3          	add	a5,a5,a4
40003324:	02000713          	li	a4,32
40003328:	40f705b3          	sub	a1,a4,a5
4000332c:	02f71663          	bne	a4,a5,40003358 <__udivdi3+0x2fc>
40003330:	00100513          	li	a0,1
40003334:	e066eee3          	bltu	a3,t1,40003150 <__udivdi3+0xf4>
40003338:	00c8b533          	sltu	a0,a7,a2
4000333c:	00153513          	seqz	a0,a0
40003340:	00008067          	ret
40003344:	010007b7          	lui	a5,0x1000
40003348:	01800713          	li	a4,24
4000334c:	fcf6f0e3          	bgeu	a3,a5,4000330c <__udivdi3+0x2b0>
40003350:	01000713          	li	a4,16
40003354:	fb9ff06f          	j	4000330c <__udivdi3+0x2b0>
40003358:	00f65733          	srl	a4,a2,a5
4000335c:	00b696b3          	sll	a3,a3,a1
40003360:	00d766b3          	or	a3,a4,a3
40003364:	00f35733          	srl	a4,t1,a5
40003368:	00b31333          	sll	t1,t1,a1
4000336c:	00f8d7b3          	srl	a5,a7,a5
40003370:	0067e7b3          	or	a5,a5,t1
40003374:	0106d313          	srli	t1,a3,0x10
40003378:	02675eb3          	divu	t4,a4,t1
4000337c:	01069813          	slli	a6,a3,0x10
40003380:	01085813          	srli	a6,a6,0x10
40003384:	00b61633          	sll	a2,a2,a1
40003388:	02677733          	remu	a4,a4,t1
4000338c:	03d80e33          	mul	t3,a6,t4
40003390:	01071513          	slli	a0,a4,0x10
40003394:	0107d713          	srli	a4,a5,0x10
40003398:	00a76733          	or	a4,a4,a0
4000339c:	000e8513          	mv	a0,t4
400033a0:	01c77e63          	bgeu	a4,t3,400033bc <__udivdi3+0x360>
400033a4:	00e68733          	add	a4,a3,a4
400033a8:	fffe8513          	addi	a0,t4,-1
400033ac:	00d76863          	bltu	a4,a3,400033bc <__udivdi3+0x360>
400033b0:	01c77663          	bgeu	a4,t3,400033bc <__udivdi3+0x360>
400033b4:	ffee8513          	addi	a0,t4,-2
400033b8:	00d70733          	add	a4,a4,a3
400033bc:	41c70733          	sub	a4,a4,t3
400033c0:	02675e33          	divu	t3,a4,t1
400033c4:	01079793          	slli	a5,a5,0x10
400033c8:	0107d793          	srli	a5,a5,0x10
400033cc:	02677733          	remu	a4,a4,t1
400033d0:	03c80833          	mul	a6,a6,t3
400033d4:	01071713          	slli	a4,a4,0x10
400033d8:	00e7e7b3          	or	a5,a5,a4
400033dc:	000e0713          	mv	a4,t3
400033e0:	0107fe63          	bgeu	a5,a6,400033fc <__udivdi3+0x3a0>
400033e4:	00f687b3          	add	a5,a3,a5
400033e8:	fffe0713          	addi	a4,t3,-1
400033ec:	00d7e863          	bltu	a5,a3,400033fc <__udivdi3+0x3a0>
400033f0:	0107f663          	bgeu	a5,a6,400033fc <__udivdi3+0x3a0>
400033f4:	ffee0713          	addi	a4,t3,-2
400033f8:	00d787b3          	add	a5,a5,a3
400033fc:	01051513          	slli	a0,a0,0x10
40003400:	00010e37          	lui	t3,0x10
40003404:	00e56533          	or	a0,a0,a4
40003408:	fffe0693          	addi	a3,t3,-1 # ffff <buflen.1+0xffbf>
4000340c:	00d57733          	and	a4,a0,a3
40003410:	410787b3          	sub	a5,a5,a6
40003414:	00d676b3          	and	a3,a2,a3
40003418:	01055813          	srli	a6,a0,0x10
4000341c:	01065613          	srli	a2,a2,0x10
40003420:	02d70333          	mul	t1,a4,a3
40003424:	02d806b3          	mul	a3,a6,a3
40003428:	02c70733          	mul	a4,a4,a2
4000342c:	02c80833          	mul	a6,a6,a2
40003430:	00d70633          	add	a2,a4,a3
40003434:	01035713          	srli	a4,t1,0x10
40003438:	00c70733          	add	a4,a4,a2
4000343c:	00d77463          	bgeu	a4,a3,40003444 <__udivdi3+0x3e8>
40003440:	01c80833          	add	a6,a6,t3
40003444:	01075693          	srli	a3,a4,0x10
40003448:	010686b3          	add	a3,a3,a6
4000344c:	02d7e663          	bltu	a5,a3,40003478 <__udivdi3+0x41c>
40003450:	ced79ee3          	bne	a5,a3,4000314c <__udivdi3+0xf0>
40003454:	000107b7          	lui	a5,0x10
40003458:	fff78793          	addi	a5,a5,-1 # ffff <buflen.1+0xffbf>
4000345c:	00f77733          	and	a4,a4,a5
40003460:	01071713          	slli	a4,a4,0x10
40003464:	00f37333          	and	t1,t1,a5
40003468:	00b898b3          	sll	a7,a7,a1
4000346c:	00670733          	add	a4,a4,t1
40003470:	00000593          	li	a1,0
40003474:	cce8fee3          	bgeu	a7,a4,40003150 <__udivdi3+0xf4>
40003478:	fff50513          	addi	a0,a0,-1 # ffffff <buflen.1+0xffffbf>
4000347c:	cd1ff06f          	j	4000314c <__udivdi3+0xf0>
40003480:	00000593          	li	a1,0
40003484:	00000513          	li	a0,0
40003488:	00008067          	ret

4000348c <__umoddi3>:
4000348c:	00060813          	mv	a6,a2
40003490:	00050793          	mv	a5,a0
40003494:	00058713          	mv	a4,a1
40003498:	20069663          	bnez	a3,400036a4 <__umoddi3+0x218>
4000349c:	400048b7          	lui	a7,0x40004
400034a0:	a3088893          	addi	a7,a7,-1488 # 40003a30 <__clz_tab>
400034a4:	0cc5fc63          	bgeu	a1,a2,4000357c <__umoddi3+0xf0>
400034a8:	000106b7          	lui	a3,0x10
400034ac:	0ad67e63          	bgeu	a2,a3,40003568 <__umoddi3+0xdc>
400034b0:	10063693          	sltiu	a3,a2,256
400034b4:	0016b693          	seqz	a3,a3
400034b8:	00369693          	slli	a3,a3,0x3
400034bc:	00d65333          	srl	t1,a2,a3
400034c0:	006888b3          	add	a7,a7,t1
400034c4:	0008c883          	lbu	a7,0(a7)
400034c8:	02000313          	li	t1,32
400034cc:	00d886b3          	add	a3,a7,a3
400034d0:	40d308b3          	sub	a7,t1,a3
400034d4:	00d30c63          	beq	t1,a3,400034ec <__umoddi3+0x60>
400034d8:	01159733          	sll	a4,a1,a7
400034dc:	00d556b3          	srl	a3,a0,a3
400034e0:	01161833          	sll	a6,a2,a7
400034e4:	00e6e733          	or	a4,a3,a4
400034e8:	011517b3          	sll	a5,a0,a7
400034ec:	01085613          	srli	a2,a6,0x10
400034f0:	02c756b3          	divu	a3,a4,a2
400034f4:	01081513          	slli	a0,a6,0x10
400034f8:	01055513          	srli	a0,a0,0x10
400034fc:	02c77733          	remu	a4,a4,a2
40003500:	02a686b3          	mul	a3,a3,a0
40003504:	01071593          	slli	a1,a4,0x10
40003508:	0107d713          	srli	a4,a5,0x10
4000350c:	00b76733          	or	a4,a4,a1
40003510:	00d77a63          	bgeu	a4,a3,40003524 <__umoddi3+0x98>
40003514:	00e80733          	add	a4,a6,a4
40003518:	01076663          	bltu	a4,a6,40003524 <__umoddi3+0x98>
4000351c:	00d77463          	bgeu	a4,a3,40003524 <__umoddi3+0x98>
40003520:	01070733          	add	a4,a4,a6
40003524:	40d70733          	sub	a4,a4,a3
40003528:	02c756b3          	divu	a3,a4,a2
4000352c:	02c77733          	remu	a4,a4,a2
40003530:	02a686b3          	mul	a3,a3,a0
40003534:	01079793          	slli	a5,a5,0x10
40003538:	01071713          	slli	a4,a4,0x10
4000353c:	0107d793          	srli	a5,a5,0x10
40003540:	00e7e7b3          	or	a5,a5,a4
40003544:	00d7fa63          	bgeu	a5,a3,40003558 <__umoddi3+0xcc>
40003548:	00f807b3          	add	a5,a6,a5
4000354c:	0107e663          	bltu	a5,a6,40003558 <__umoddi3+0xcc>
40003550:	00d7f463          	bgeu	a5,a3,40003558 <__umoddi3+0xcc>
40003554:	010787b3          	add	a5,a5,a6
40003558:	40d787b3          	sub	a5,a5,a3
4000355c:	0117d533          	srl	a0,a5,a7
40003560:	00000593          	li	a1,0
40003564:	00008067          	ret
40003568:	01000337          	lui	t1,0x1000
4000356c:	01800693          	li	a3,24
40003570:	f46676e3          	bgeu	a2,t1,400034bc <__umoddi3+0x30>
40003574:	01000693          	li	a3,16
40003578:	f45ff06f          	j	400034bc <__umoddi3+0x30>
4000357c:	00000693          	li	a3,0
40003580:	00060c63          	beqz	a2,40003598 <__umoddi3+0x10c>
40003584:	00010737          	lui	a4,0x10
40003588:	06e67e63          	bgeu	a2,a4,40003604 <__umoddi3+0x178>
4000358c:	10063693          	sltiu	a3,a2,256
40003590:	0016b693          	seqz	a3,a3
40003594:	00369693          	slli	a3,a3,0x3
40003598:	00d65733          	srl	a4,a2,a3
4000359c:	00e888b3          	add	a7,a7,a4
400035a0:	0008c703          	lbu	a4,0(a7)
400035a4:	00d70733          	add	a4,a4,a3
400035a8:	02000693          	li	a3,32
400035ac:	40e688b3          	sub	a7,a3,a4
400035b0:	06e69463          	bne	a3,a4,40003618 <__umoddi3+0x18c>
400035b4:	40c58733          	sub	a4,a1,a2
400035b8:	01085593          	srli	a1,a6,0x10
400035bc:	02b75633          	divu	a2,a4,a1
400035c0:	01081513          	slli	a0,a6,0x10
400035c4:	01055513          	srli	a0,a0,0x10
400035c8:	0107d693          	srli	a3,a5,0x10
400035cc:	02b77733          	remu	a4,a4,a1
400035d0:	02a60633          	mul	a2,a2,a0
400035d4:	01071713          	slli	a4,a4,0x10
400035d8:	00e6e733          	or	a4,a3,a4
400035dc:	00c77a63          	bgeu	a4,a2,400035f0 <__umoddi3+0x164>
400035e0:	00e80733          	add	a4,a6,a4
400035e4:	01076663          	bltu	a4,a6,400035f0 <__umoddi3+0x164>
400035e8:	00c77463          	bgeu	a4,a2,400035f0 <__umoddi3+0x164>
400035ec:	01070733          	add	a4,a4,a6
400035f0:	40c70733          	sub	a4,a4,a2
400035f4:	02b756b3          	divu	a3,a4,a1
400035f8:	02b77733          	remu	a4,a4,a1
400035fc:	02a686b3          	mul	a3,a3,a0
40003600:	f35ff06f          	j	40003534 <__umoddi3+0xa8>
40003604:	01000737          	lui	a4,0x1000
40003608:	01800693          	li	a3,24
4000360c:	f8e676e3          	bgeu	a2,a4,40003598 <__umoddi3+0x10c>
40003610:	01000693          	li	a3,16
40003614:	f85ff06f          	j	40003598 <__umoddi3+0x10c>
40003618:	01161833          	sll	a6,a2,a7
4000361c:	00e5d6b3          	srl	a3,a1,a4
40003620:	011517b3          	sll	a5,a0,a7
40003624:	011595b3          	sll	a1,a1,a7
40003628:	00e55733          	srl	a4,a0,a4
4000362c:	01085513          	srli	a0,a6,0x10
40003630:	00b76733          	or	a4,a4,a1
40003634:	02a6d5b3          	divu	a1,a3,a0
40003638:	01081313          	slli	t1,a6,0x10
4000363c:	01035313          	srli	t1,t1,0x10
40003640:	02a6f6b3          	remu	a3,a3,a0
40003644:	026585b3          	mul	a1,a1,t1
40003648:	01069613          	slli	a2,a3,0x10
4000364c:	01075693          	srli	a3,a4,0x10
40003650:	00c6e6b3          	or	a3,a3,a2
40003654:	00b6fa63          	bgeu	a3,a1,40003668 <__umoddi3+0x1dc>
40003658:	00d806b3          	add	a3,a6,a3
4000365c:	0106e663          	bltu	a3,a6,40003668 <__umoddi3+0x1dc>
40003660:	00b6f463          	bgeu	a3,a1,40003668 <__umoddi3+0x1dc>
40003664:	010686b3          	add	a3,a3,a6
40003668:	40b686b3          	sub	a3,a3,a1
4000366c:	02a6d633          	divu	a2,a3,a0
40003670:	01071713          	slli	a4,a4,0x10
40003674:	01075713          	srli	a4,a4,0x10
40003678:	02a6f6b3          	remu	a3,a3,a0
4000367c:	02660633          	mul	a2,a2,t1
40003680:	01069693          	slli	a3,a3,0x10
40003684:	00d76733          	or	a4,a4,a3
40003688:	00c77a63          	bgeu	a4,a2,4000369c <__umoddi3+0x210>
4000368c:	00e80733          	add	a4,a6,a4
40003690:	01076663          	bltu	a4,a6,4000369c <__umoddi3+0x210>
40003694:	00c77463          	bgeu	a4,a2,4000369c <__umoddi3+0x210>
40003698:	01070733          	add	a4,a4,a6
4000369c:	40c70733          	sub	a4,a4,a2
400036a0:	f19ff06f          	j	400035b8 <__umoddi3+0x12c>
400036a4:	1cd5e463          	bltu	a1,a3,4000386c <__umoddi3+0x3e0>
400036a8:	00010837          	lui	a6,0x10
400036ac:	0506fe63          	bgeu	a3,a6,40003708 <__umoddi3+0x27c>
400036b0:	1006b813          	sltiu	a6,a3,256
400036b4:	00183813          	seqz	a6,a6
400036b8:	00381813          	slli	a6,a6,0x3
400036bc:	400048b7          	lui	a7,0x40004
400036c0:	0106d333          	srl	t1,a3,a6
400036c4:	a3088893          	addi	a7,a7,-1488 # 40003a30 <__clz_tab>
400036c8:	006888b3          	add	a7,a7,t1
400036cc:	0008c883          	lbu	a7,0(a7)
400036d0:	02000313          	li	t1,32
400036d4:	010888b3          	add	a7,a7,a6
400036d8:	41130833          	sub	a6,t1,a7
400036dc:	05131063          	bne	t1,a7,4000371c <__umoddi3+0x290>
400036e0:	00b6e463          	bltu	a3,a1,400036e8 <__umoddi3+0x25c>
400036e4:	00c56c63          	bltu	a0,a2,400036fc <__umoddi3+0x270>
400036e8:	40c50633          	sub	a2,a0,a2
400036ec:	40d586b3          	sub	a3,a1,a3
400036f0:	00c53733          	sltu	a4,a0,a2
400036f4:	00060793          	mv	a5,a2
400036f8:	40e68733          	sub	a4,a3,a4
400036fc:	00078513          	mv	a0,a5
40003700:	00070593          	mv	a1,a4
40003704:	00008067          	ret
40003708:	010008b7          	lui	a7,0x1000
4000370c:	01800813          	li	a6,24
40003710:	fb16f6e3          	bgeu	a3,a7,400036bc <__umoddi3+0x230>
40003714:	01000813          	li	a6,16
40003718:	fa5ff06f          	j	400036bc <__umoddi3+0x230>
4000371c:	011657b3          	srl	a5,a2,a7
40003720:	010696b3          	sll	a3,a3,a6
40003724:	00d7e6b3          	or	a3,a5,a3
40003728:	0115d733          	srl	a4,a1,a7
4000372c:	0106de13          	srli	t3,a3,0x10
40003730:	03c75f33          	divu	t5,a4,t3
40003734:	01069313          	slli	t1,a3,0x10
40003738:	01035313          	srli	t1,t1,0x10
4000373c:	010597b3          	sll	a5,a1,a6
40003740:	011555b3          	srl	a1,a0,a7
40003744:	00f5e5b3          	or	a1,a1,a5
40003748:	0105d793          	srli	a5,a1,0x10
4000374c:	01061633          	sll	a2,a2,a6
40003750:	01051533          	sll	a0,a0,a6
40003754:	03c77733          	remu	a4,a4,t3
40003758:	03e30eb3          	mul	t4,t1,t5
4000375c:	01071713          	slli	a4,a4,0x10
40003760:	00e7e7b3          	or	a5,a5,a4
40003764:	000f0713          	mv	a4,t5
40003768:	01d7fe63          	bgeu	a5,t4,40003784 <__umoddi3+0x2f8>
4000376c:	00f687b3          	add	a5,a3,a5
40003770:	ffff0713          	addi	a4,t5,-1
40003774:	00d7e863          	bltu	a5,a3,40003784 <__umoddi3+0x2f8>
40003778:	01d7f663          	bgeu	a5,t4,40003784 <__umoddi3+0x2f8>
4000377c:	ffef0713          	addi	a4,t5,-2
40003780:	00d787b3          	add	a5,a5,a3
40003784:	41d787b3          	sub	a5,a5,t4
40003788:	03c7deb3          	divu	t4,a5,t3
4000378c:	01059593          	slli	a1,a1,0x10
40003790:	0105d593          	srli	a1,a1,0x10
40003794:	03c7f7b3          	remu	a5,a5,t3
40003798:	000e8e13          	mv	t3,t4
4000379c:	03d30333          	mul	t1,t1,t4
400037a0:	01079793          	slli	a5,a5,0x10
400037a4:	00f5e5b3          	or	a1,a1,a5
400037a8:	0065fe63          	bgeu	a1,t1,400037c4 <__umoddi3+0x338>
400037ac:	00b685b3          	add	a1,a3,a1
400037b0:	fffe8e13          	addi	t3,t4,-1
400037b4:	00d5e863          	bltu	a1,a3,400037c4 <__umoddi3+0x338>
400037b8:	0065f663          	bgeu	a1,t1,400037c4 <__umoddi3+0x338>
400037bc:	ffee8e13          	addi	t3,t4,-2
400037c0:	00d585b3          	add	a1,a1,a3
400037c4:	01071793          	slli	a5,a4,0x10
400037c8:	00010f37          	lui	t5,0x10
400037cc:	01c7e7b3          	or	a5,a5,t3
400037d0:	406585b3          	sub	a1,a1,t1
400037d4:	ffff0313          	addi	t1,t5,-1 # ffff <buflen.1+0xffbf>
400037d8:	0067f733          	and	a4,a5,t1
400037dc:	01065e13          	srli	t3,a2,0x10
400037e0:	0107d793          	srli	a5,a5,0x10
400037e4:	00667333          	and	t1,a2,t1
400037e8:	02670eb3          	mul	t4,a4,t1
400037ec:	02678333          	mul	t1,a5,t1
400037f0:	03c70733          	mul	a4,a4,t3
400037f4:	03c787b3          	mul	a5,a5,t3
400037f8:	00670e33          	add	t3,a4,t1
400037fc:	010ed713          	srli	a4,t4,0x10
40003800:	01c70733          	add	a4,a4,t3
40003804:	00677463          	bgeu	a4,t1,4000380c <__umoddi3+0x380>
40003808:	01e787b3          	add	a5,a5,t5
4000380c:	01075313          	srli	t1,a4,0x10
40003810:	00f307b3          	add	a5,t1,a5
40003814:	00010337          	lui	t1,0x10
40003818:	fff30313          	addi	t1,t1,-1 # ffff <buflen.1+0xffbf>
4000381c:	00677733          	and	a4,a4,t1
40003820:	01071713          	slli	a4,a4,0x10
40003824:	006efeb3          	and	t4,t4,t1
40003828:	01d70733          	add	a4,a4,t4
4000382c:	00f5e663          	bltu	a1,a5,40003838 <__umoddi3+0x3ac>
40003830:	00f59e63          	bne	a1,a5,4000384c <__umoddi3+0x3c0>
40003834:	00e57c63          	bgeu	a0,a4,4000384c <__umoddi3+0x3c0>
40003838:	40c70633          	sub	a2,a4,a2
4000383c:	00c73333          	sltu	t1,a4,a2
40003840:	00d306b3          	add	a3,t1,a3
40003844:	00060713          	mv	a4,a2
40003848:	40d787b3          	sub	a5,a5,a3
4000384c:	40e50733          	sub	a4,a0,a4
40003850:	00e53533          	sltu	a0,a0,a4
40003854:	40f585b3          	sub	a1,a1,a5
40003858:	40a585b3          	sub	a1,a1,a0
4000385c:	011598b3          	sll	a7,a1,a7
40003860:	01075733          	srl	a4,a4,a6
40003864:	00e8e533          	or	a0,a7,a4
40003868:	0105d5b3          	srl	a1,a1,a6
4000386c:	00008067          	ret

Disassembly of section .text.startup:

40003870 <main>:
40003870:	ff010113          	addi	sp,sp,-16
40003874:	00000517          	auipc	a0,0x0
40003878:	04050513          	addi	a0,a0,64 # 400038b4 <main+0x44>
4000387c:	00112623          	sw	ra,12(sp)
40003880:	e49fe0ef          	jal	400026c8 <printstr>
40003884:	00c12083          	lw	ra,12(sp)
40003888:	fff00513          	li	a0,-1
4000388c:	01010113          	addi	sp,sp,16
40003890:	00008067          	ret
